******************************************************************************
            TI ARM Clang Linker PC v4.0.4                      
******************************************************************************
>> Linked Tue Mar 24 20:09:43 2026

OUTPUT FILE NAME:   <ccu_ti_multi_core_freertos.out>
ENTRY POINT SYMBOL: "_vectors"  address: 00000000


MEMORY CONFIGURATION

         name            origin    length      used     unused   attr    fill
----------------------  --------  ---------  --------  --------  ----  --------
  R5F_VECS              00000000   00000040  00000040  00000000  RWIX
  R5F_TCMA              00000040   00007fc0  00000000  00007fc0  RWIX
  R5F_TCMB              00080000   00008000  00000000  00008000  RWIX
  MAILBOX_HSM           44000000   000003ce  00000000  000003ce  RWIX
  MAILBOX_R5F           44000400   000003ce  00000000  000003ce  RWIX
  FLASH                 60100000   00080000  00000000  00080000  RWIX
  SBL                   70000000   00040000  00000000  00040000  RWIX
  OCRAM                 70040000   00040000  0002c1f0  00013e10  RWIX
  USER_SHM_MEM          701d0000   00004000  000001c0  00003e40  RWIX
  LOG_SHM_MEM           701d4000   00004000  00002000  00002000  RWIX
  RTOS_NORTOS_IPC_SHM_M 72000000   00003e80  00000000  00003e80  RWIX


SEGMENT ALLOCATION MAP

run origin  load origin   length   init length attrs members
----------  ----------- ---------- ----------- ----- -------
00000000    00000000    00000040   00000040    r-x
  00000000    00000000    00000040   00000040    r-x .vectors
70040000    70040000    00014ec0   00000000    rw-
  70040000    70040000    00008ec0   00000000    rw- .bss
  70048ec0    70048ec0    00008000   00000000    rw- .sysmem
  70050ec0    70050ec0    00004000   00000000    rw- .stack
70054ec0    70054ec0    00013fc8   00013fc8    r-x
  70054ec0    70054ec0    00012050   00012050    r-x .text
  70066f10    70066f10    00001f78   00001f78    r-- .rodata
70068e90    70068e90    000019b8   000019b8    r-x
  70068e90    70068e90    00000f90   00000f90    r-x .text.hwi
  70069e20    70069e20    000004a0   000004a0    r-x .text.cache
  7006a2c0    7006a2c0    000003c0   000003c0    r-x .text.mpu
  7006a680    7006a680    000001c0   000001c0    r-x .text.boot
  7006a840    7006a840    00000008   00000008    r-x .text:abort
7006a848    7006a848    000019b0   000005b0    rw-
  7006a848    7006a848    000005b0   000005b0    rw- .data
  7006adf8    7006adf8    00000100   00000000    rw- .irqstack
  7006aef8    7006aef8    00000100   00000000    rw- .fiqstack
  7006aff8    7006aff8    00001000   00000000    rw- .svcstack
  7006bff8    7006bff8    00000100   00000000    rw- .abortstack
  7006c0f8    7006c0f8    00000100   00000000    rw- .undefinedstack


SECTION ALLOCATION MAP

 output                                  attributes/
section   page    origin      length       input sections
--------  ----  ----------  ----------   ----------------
.vectors   0    00000000    00000040     
                  00000000    00000040     freertos.am263px.r5f.ti-arm-clang.debug.lib : HwiP_armv7r_vectors_freertos_asm.obj (.vectors)

.bss       0    70040000    00008ec0     UNINITIALIZED
                  70040000    00002000     main.o (.bss.gMainTaskStack)
                  70042000    00001000     freertos.am263px.r5f.ti-arm-clang.debug.lib : DebugP_shmLogReader_freertos.obj (.bss.gDebugShmLogReaderTaskStack)
                  70043000    00001000     main.o (.bss.gUdpRxTaskStack)
                  70044000    00001000     main.o (.bss.gUdpTxTaskStack)
                  70045000    00001000     freertos.am263px.r5f.ti-arm-clang.debug.lib : port.obj (.bss.uxIdleTaskStack)
                  70046000    0000080c     (.common:gHwiCtrl)
                  7004680c    00000014                                                 : timers.obj (.bss.xActiveTimerList1)
                  70046820    00000800     main.o (.bss.gIpcTaskStack)
                  70047020    00000800     log_reader_task.o (.bss.gLogReaderTaskStack)
                  70047820    00000400     freertos.am263px.r5f.ti-arm-clang.debug.lib : port.obj (.bss.uxTimerTaskStack)
                  70047c20    00000288     ti_drivers_config.o (.bss.gUartObjects)
                  70047ea8    00000280     freertos.am263px.r5f.ti-arm-clang.debug.lib : tasks.obj (.bss.pxReadyTasksLists)
                  70048128    00000178     ti_drivers_config.o (.bss.gI2cObjects)
                  700482a0    0000016c     (.common:gEepromObject_CAT24M)
                  7004840c    00000100     freertos.am263px.r5f.ti-arm-clang.debug.lib : timers.obj (.bss.prvCheckForValidListAndQueue.ucStaticTimerQueueStorage)
                  7004850c    00000100     (.common:xQueueRegistry)
                  7004860c    000000b8     (.common:gIpcNotifyCtrl)
                  700486c4    00000004                                                 : DebugP_shmLogReader_freertos.obj (.bss.gDebugShmLogReaderTask)
                  700486c8    000000a0     (.common:gTaskP_ctrl)
                  70048768    00000098                                                 : DebugP_shmLogReader_freertos.obj (.bss.gDebugShmLogReaderTaskObj)
                  70048800    00000098     main.o (.bss.gIpcTaskObj)
                  70048898    00000098     log_reader_task.o (.bss.gLogReaderTaskObj)
                  70048930    00000098     main.o (.bss.gMainTaskObj)
                  700489c8    00000098     main.o (.bss.gUdpRxTaskObj)
                  70048a60    00000098     main.o (.bss.gUdpTxTaskObj)
                  70048af8    00000098     freertos.am263px.r5f.ti-arm-clang.debug.lib : port.obj (.bss.xIdleTaskTCB)
                  70048b90    00000098                                                 : port.obj (.bss.xTimerTaskTCB)
                  70048c28    00000094     (.common:gDebugShmLogReaderCtrl)
                  70048cbc    00000058                                                 : DebugP_freertos.obj (.bss.gDebugLogLockObj)
                  70048d14    00000050                                                 : timers.obj (.bss.prvCheckForValidListAndQueue.xStaticTimerQueue)
                  70048d64    00000050     (.common:gRovDummyQueue)
                  70048db4    00000030     main.o (.bss.g_motor_states)
                  70048de4    00000004     freertos.am263px.r5f.ti-arm-clang.debug.lib : HwiP_armv7r_handlers_freertos.obj (.bss.gdummy)
                  70048de8    00000018     (.common:gClockCtrl)
                  70048e00    00000014                                                 : timers.obj (.bss.xActiveTimerList2)
                  70048e14    00000014                                                 : tasks.obj (.bss.xDelayedTaskList1)
                  70048e28    00000014                                                 : tasks.obj (.bss.xDelayedTaskList2)
                  70048e3c    00000014                                                 : tasks.obj (.bss.xPendingReadyList)
                  70048e50    00000014                                                 : tasks.obj (.bss.xSuspendedTaskList)
                  70048e64    00000014                                                 : tasks.obj (.bss.xTasksWaitingTermination)
                  70048e78    00000010     (.common:virtToPhymap)
                  70048e88    00000004                                                 : HwiP_armv7r_vim.obj (.bss.gdummy)
                  70048e8c    00000004                                                 : timers.obj (.bss.pxCurrentTimerList)
                  70048e90    00000004                                                 : tasks.obj (.bss.pxDelayedTaskList)
                  70048e94    00000004                                                 : tasks.obj (.bss.pxOverflowDelayedTaskList)
                  70048e98    00000004                                                 : timers.obj (.bss.pxOverflowTimerList)
                  70048e9c    00000004     libc.a : memory.c.obj (.bss.sys_free)
                  70048ea0    00000004     freertos.am263px.r5f.ti-arm-clang.debug.lib : tasks.obj (.bss.xIdleTaskHandles)
                  70048ea4    00000004     (.common:gEepromHandle)
                  70048ea8    00000004     (.common:gI2cHandle)
                  70048eac    00000004     (.common:gUartHandle)
                  70048eb0    00000010     --HOLE--

.sysmem    0    70048ec0    00008000     UNINITIALIZED
                  70048ec0    00000010     libc.a : memory.c.obj (.sysmem)
                  70048ed0    00007ff0     --HOLE--

.stack     0    70050ec0    00004000     UNINITIALIZED
                  70050ec0    00000004     freertos.am263px.r5f.ti-arm-clang.debug.lib : boot_armv7r_asm.obj (.stack)
                  70050ec4    00003ffc     --HOLE--

.text      0    70054ec0    00012050     
                  70054ec0    00000a34     freertos.am263px.r5f.ti-arm-clang.debug.lib : printf.obj (.text._vsnprintf)
                  700558f4    0000000c     libclang_rt.builtins.a : aeabi_memset.S.obj (.text.__aeabi_memclr)
                  70055900    000007a4     drivers.am263px.r5f.ti-arm-clang.freertos.debug.lib : i2c_v1_lld.obj (.text.I2C_lld_primeTransferPoll)
                  700560a4    0000000c     freertos.am263px.r5f.ti-arm-clang.debug.lib : CpuId_armv7r_asm.obj (.text)
                  700560b0    00000678     drivers.am263px.r5f.ti-arm-clang.freertos.debug.lib : soc_rcm.obj (.text.SOC_rcmGetClkSrcAndDivReg)
                  70056728    00000008     libsysbm.a : hostexit.c.obj (.text.HOSTexit)
                  70056730    00000638     drivers.am263px.r5f.ti-arm-clang.freertos.debug.lib : soc_rcm.obj (.text.SOC_rcmEnablePeripheralClock)
                  70056d68    00000004     libclang_rt.builtins.a : aeabi_div0.c.obj (.text.__aeabi_ldiv0)
                  70056d6c    00000004                            : aeabi_memcpy.S.obj (.text.__aeabi_memcpy)
                  70056d70    000005e2     freertos.am263px.r5f.ti-arm-clang.debug.lib : printf.obj (.text._ftoa)
                  70057352    00000002     --HOLE-- [fill = 0]
                  70057354    00000004     libc.a : _lock.c.obj (.text._nop)
                  70057358    00000008     --HOLE-- [fill = 0]
                  70057360    000004b0     freertos.am263px.r5f.ti-arm-clang.debug.lib : printf.obj (.text._etoa)
                  70057810    00000404     drivers.am263px.r5f.ti-arm-clang.freertos.debug.lib : uart_v0.obj (.text.UART_open)
                  70057c14    0000000c     --HOLE-- [fill = 0]
                  70057c20    000003dc                                                         : ipc_notify_v1.obj (.text.IpcNotify_init)
                  70057ffc    00000004     --HOLE-- [fill = 0]
                  70058000    00000356                                                         : i2c_v1.obj (.text.I2C_open)
                  70058356    0000000a     --HOLE-- [fill = 0]
                  70058360    00000302                                                         : soc.obj (.text.SOC_virtToPhy)
                  70058662    0000000e     --HOLE-- [fill = 0]
                  70058670    000002ba                                                         : i2c_v1_lld.obj (.text.I2C_lld_controllerIsr)
                  7005892a    00000006     --HOLE-- [fill = 0]
                  70058930    0000029a                                                         : i2c_v1_lld.obj (.text.I2C_lld_targetIsr)
                  70058bca    00000006     --HOLE-- [fill = 0]
                  70058bd0    0000027e                                                         : uart_dma_edma.obj (.text.UART_edmaChInit)
                  70058e4e    00000002     --HOLE-- [fill = 0]
                  70058e50    00000266     freertos.am263px.r5f.ti-arm-clang.debug.lib : tasks.obj (.text.xTaskIncrementTick)
                  700590b6    0000000a     --HOLE-- [fill = 0]
                  700590c0    0000025a                                                 : tasks.obj (.text.xTaskResumeAll)
                  7005931a    00000006     --HOLE-- [fill = 0]
                  70059320    00000250     drivers.am263px.r5f.ti-arm-clang.freertos.debug.lib : edma.obj (.text.Alloc_resource)
                  70059570    00000242                                                         : uart_v0_lld.obj (.text.UART_fifoConfig)
                  700597b2    0000000e     --HOLE-- [fill = 0]
                  700597c0    0000023e     freertos.am263px.r5f.ti-arm-clang.debug.lib : printf.obj (.text._ntoa_format)
                  700599fe    00000002     --HOLE-- [fill = 0]
                  70059a00    0000023c     main.o (.text.ipc_process_task)
                  70059c3c    00000004     --HOLE-- [fill = 0]
                  70059c40    00000226     drivers.am263px.r5f.ti-arm-clang.freertos.debug.lib : uart_dma_edma.obj (.text.UART_lld_dmaDeInit)
                  70059e66    0000000a     --HOLE-- [fill = 0]
                  70059e70    00000222                                                         : ipc_notify_v1.obj (.text.IpcNotify_isr)
                  7005a092    0000000e     --HOLE-- [fill = 0]
                  7005a0a0    00000220     freertos.am263px.r5f.ti-arm-clang.debug.lib : tasks.obj (.text.vTaskGenericNotifyGiveFromISR)
                  7005a2c0    00000220                                                 : queue.obj (.text.xQueueGenericSend)
                  7005a4e0    0000020a                                                 : queue.obj (.text.xQueueSemaphoreTake)
                  7005a6ea    00000006     --HOLE-- [fill = 0]
                  7005a6f0    000001f2     drivers.am263px.r5f.ti-arm-clang.freertos.debug.lib : i2c_v1.obj (.text.I2C_primeTransfer)
                  7005a8e2    0000000e     --HOLE-- [fill = 0]
                  7005a8f0    000001f2                                                         : i2c_v1.obj (.text.I2C_transfer)
                  7005aae2    0000000e     --HOLE-- [fill = 0]
                  7005aaf0    000001d8     freertos.am263px.r5f.ti-arm-clang.debug.lib : queue.obj (.text.xQueueReceive)
                  7005acc8    00000008     --HOLE-- [fill = 0]
                  7005acd0    000001d6                                                 : TimerP_rti_priv.obj (.text.TimerP_setupPriv)
                  7005aea6    0000000a     --HOLE-- [fill = 0]
                  7005aeb0    000001bc                                                 : tasks.obj (.text.xTaskRemoveFromEventList)
                  7005b06c    00000004     --HOLE-- [fill = 0]
                  7005b070    000001ac     drivers.am263px.r5f.ti-arm-clang.freertos.debug.lib : uart_v0.obj (.text.UART_close)
                  7005b21c    00000004     --HOLE-- [fill = 0]
                  7005b220    000001aa                                                         : uart_dma_edma.obj (.text.UART_lld_dmaWrite)
                  7005b3ca    00000002     --HOLE-- [fill = 0]
                  7005b3cc    000001a8     libc.a : memory.c.obj (.text.free)
                  7005b574    0000000c     --HOLE-- [fill = 0]
                  7005b580    000001a4     freertos.am263px.r5f.ti-arm-clang.debug.lib : timers.obj (.text.prvProcessReceivedCommands)
                  7005b724    0000000c     --HOLE-- [fill = 0]
                  7005b730    000001a0     drivers.am263px.r5f.ti-arm-clang.freertos.debug.lib : uart_v0.obj (.text.UART_write)
                  7005b8d0    000001a0     freertos.am263px.r5f.ti-arm-clang.debug.lib : tasks.obj (.text.vTaskSwitchContext)
                  7005ba70    0000019a     main.o (.text.freertos_main)
                  7005bc0a    00000006     --HOLE-- [fill = 0]
                  7005bc10    0000019a     freertos.am263px.r5f.ti-arm-clang.debug.lib : tasks.obj (.text.vTaskPriorityDisinheritAfterTimeout)
                  7005bdaa    00000006     --HOLE-- [fill = 0]
                  7005bdb0    00000198     drivers.am263px.r5f.ti-arm-clang.freertos.debug.lib : uart_v0_lld.obj (.text.UART_lld_controllerIsr)
                  7005bf48    00000008     --HOLE-- [fill = 0]
                  7005bf50    00000188     freertos.am263px.r5f.ti-arm-clang.debug.lib : ClockP_freertos_r5.obj (.text.ClockP_init)
                  7005c0d8    00000008     --HOLE-- [fill = 0]
                  7005c0e0    00000180     main.o (.text.core0_init)
                  7005c260    00000178     freertos.am263px.r5f.ti-arm-clang.debug.lib : DebugP_shmLogReader.obj (.text.DebugP_shmLogReaderGetString)
                  7005c3d8    00000008     --HOLE-- [fill = 0]
                  7005c3e0    00000172     board.am263px.r5f.ti-arm-clang.freertos.debug.lib : eeprom_cat24m.obj (.text.EEPROM_CAT24M_write)
                  7005c552    0000000e     --HOLE-- [fill = 0]
                  7005c560    00000170     freertos.am263px.r5f.ti-arm-clang.debug.lib : queue.obj (.text.xQueueGiveFromISR)
                  7005c6d0    00000166     drivers.am263px.r5f.ti-arm-clang.freertos.debug.lib : i2c_v1_lld.obj (.text.I2C_lld_primeTransferIntr)
                  7005c836    0000000a     --HOLE-- [fill = 0]
                  7005c840    00000162                                                         : edma.obj (.text.EDMA_unregisterIntr)
                  7005c9a2    0000000e     --HOLE-- [fill = 0]
                  7005c9b0    00000160                                                         : i2c_v1_lld.obj (.text.I2C_lld_init)
                  7005cb10    0000015c     freertos.am263px.r5f.ti-arm-clang.debug.lib : tasks.obj (.text.prvAddNewTaskToReadyList)
                  7005cc6c    00000004     --HOLE-- [fill = 0]
                  7005cc70    0000015c                                                 : tasks.obj (.text.xTaskPriorityInherit)
                  7005cdcc    00000004     --HOLE-- [fill = 0]
                  7005cdd0    00000158     drivers.am263px.r5f.ti-arm-clang.freertos.debug.lib : soc.obj (.text.SOC_controlModuleUnlockMMR)
                  7005cf28    00000008     --HOLE-- [fill = 0]
                  7005cf30    00000152                                                         : uart_v0_lld.obj (.text.UART_lld_initDma)
                  7005d082    0000000e     --HOLE-- [fill = 0]
                  7005d090    0000014e     freertos.am263px.r5f.ti-arm-clang.debug.lib : tasks.obj (.text.xTaskPriorityDisinherit)
                  7005d1de    00000002     --HOLE-- [fill = 0]
                  7005d1e0    0000014c                                                 : queue.obj (.text.xQueueReceiveFromISR)
                  7005d32c    00000004     --HOLE-- [fill = 0]
                  7005d330    00000144                                                 : tasks.obj (.text.prvInitialiseNewTask)
                  7005d474    0000000c     --HOLE-- [fill = 0]
                  7005d480    0000013e     drivers.am263px.r5f.ti-arm-clang.freertos.debug.lib : i2c_v1.obj (.text.I2C_mem_primeTransfer)
                  7005d5be    00000002     --HOLE-- [fill = 0]
                  7005d5c0    0000013a                                                         : edma.obj (.text.EDMA_isDmaChannelAllocated)
                  7005d6fa    00000006     --HOLE-- [fill = 0]
                  7005d700    0000013a                                                         : i2c_v1_lld.obj (.text.I2C_lld_mem_write)
                  7005d83a    00000006     --HOLE-- [fill = 0]
                  7005d840    00000138     freertos.am263px.r5f.ti-arm-clang.debug.lib : printf.obj (.text._ntoa_long_long)
                  7005d978    00000008     --HOLE-- [fill = 0]
                  7005d980    00000136     drivers.am263px.r5f.ti-arm-clang.freertos.debug.lib : uart_v0_lld.obj (.text.UART_procLineStatusErr)
                  7005dab6    0000000a     --HOLE-- [fill = 0]
                  7005dac0    00000134                                                         : edma.obj (.text.EDMA_registerIntr)
                  7005dbf4    0000000c     --HOLE-- [fill = 0]
                  7005dc00    00000134                                                         : uart_v0_lld.obj (.text.UART_writePolling)
                  7005dd34    0000000c     --HOLE-- [fill = 0]
                  7005dd40    00000134     freertos.am263px.r5f.ti-arm-clang.debug.lib : tasks.obj (.text.vTaskDelete)
                  7005de74    0000000c     --HOLE-- [fill = 0]
                  7005de80    0000012c     drivers.am263px.r5f.ti-arm-clang.freertos.debug.lib : i2c_v1_lld.obj (.text.I2C_lld_mem_read)
                  7005dfac    00000004     --HOLE-- [fill = 0]
                  7005dfb0    0000012c                                                         : uart_v0_lld.obj (.text.UART_lld_init)
                  7005e0dc    00000004     --HOLE-- [fill = 0]
                  7005e0e0    0000012c     freertos.am263px.r5f.ti-arm-clang.debug.lib : tasks.obj (.text.ulTaskGenericNotifyTake)
                  7005e20c    00000004     --HOLE-- [fill = 0]
                  7005e210    00000128     drivers.am263px.r5f.ti-arm-clang.freertos.debug.lib : i2c_v1_lld.obj (.text.I2C_lld_mem_writeIntr)
                  7005e338    00000008     --HOLE-- [fill = 0]
                  7005e340    00000128     freertos.am263px.r5f.ti-arm-clang.debug.lib : port.obj (.text.pxPortInitialiseStack)
                  7005e468    00000008     --HOLE-- [fill = 0]
                  7005e470    00000126     drivers.am263px.r5f.ti-arm-clang.freertos.debug.lib : soc.obj (.text.SOC_controlModuleLockMMR)
                  7005e596    0000000a     --HOLE-- [fill = 0]
                  7005e5a0    00000120                                                         : soc_rcm.obj (.text.SOC_rcmGetPeripheralClockFrequency)
                  7005e6c0    0000011e     freertos.am263px.r5f.ti-arm-clang.debug.lib : tasks.obj (.text.xTaskDelayUntil)
                  7005e7de    00000002     --HOLE-- [fill = 0]
                  7005e7e0    0000011c     drivers.am263px.r5f.ti-arm-clang.freertos.debug.lib : uart_dma_edma.obj (.text.UART_lld_dmaRead)
                  7005e8fc    00000004     --HOLE-- [fill = 0]
                  7005e900    0000011a                                                         : i2c_v1_lld.obj (.text.I2C_lld_mem_readIntr)
                  7005ea1a    00000002     --HOLE-- [fill = 0]
                  7005ea1c    00000118     libclang_rt.builtins.a : udivmoddi4.S.obj (.text)
                  7005eb34    0000000c     --HOLE-- [fill = 0]
                  7005eb40    00000116     drivers.am263px.r5f.ti-arm-clang.freertos.debug.lib : edma.obj (.text.EDMA_isTccAllocated)
                  7005ec56    0000000a     --HOLE-- [fill = 0]
                  7005ec60    00000116                                                         : uart_v0_lld.obj (.text.UART_divisorLatchWrite)
                  7005ed76    0000000a     --HOLE-- [fill = 0]
                  7005ed80    00000114     freertos.am263px.r5f.ti-arm-clang.debug.lib : printf.obj (.text._ntoa_long)
                  7005ee94    0000000c     --HOLE-- [fill = 0]
                  7005eea0    00000110                                                 : DebugP_shmLogReader.obj (.text.DebugP_shmLogRead)
                  7005efb0    00000110                                                 : DebugP_shmLogReader.obj (.text.DebugP_shmLogReaderTaskMain)
                  7005f0c0    0000010e     drivers.am263px.r5f.ti-arm-clang.freertos.debug.lib : soc_rcm.obj (.text.SOC_rcmADPLLJGetFOut)
                  7005f1ce    00000002     --HOLE-- [fill = 0]
                  7005f1d0    0000010e     freertos.am263px.r5f.ti-arm-clang.debug.lib : queue.obj (.text.xQueueGenericReset)
                  7005f2de    00000002     --HOLE-- [fill = 0]
                  7005f2e0    0000010a     drivers.am263px.r5f.ti-arm-clang.freertos.debug.lib : ipc_notify_v1.obj (.text.IpcNotify_sendMsg)
                  7005f3ea    00000006     --HOLE-- [fill = 0]
                  7005f3f0    00000106     freertos.am263px.r5f.ti-arm-clang.debug.lib : tasks.obj (.text.prvAddCurrentTaskToDelayedList)
                  7005f4f6    0000000a     --HOLE-- [fill = 0]
                  7005f500    00000104     drivers.am263px.r5f.ti-arm-clang.freertos.debug.lib : i2c_v1.obj (.text.I2C_close)
                  7005f604    0000000c     --HOLE-- [fill = 0]
                  7005f610    00000104                                                         : uart_v0_lld.obj (.text.UART_configInstance)
                  7005f714    0000000c     --HOLE-- [fill = 0]
                  7005f720    000000f4     freertos.am263px.r5f.ti-arm-clang.debug.lib : tasks.obj (.text.prvCreateStaticTask)
                  7005f814    0000000c     --HOLE-- [fill = 0]
                  7005f820    000000f0     drivers.am263px.r5f.ti-arm-clang.freertos.debug.lib : i2c_v1.obj (.text.I2C_LLD_targetTransferCompleteCallback)
                  7005f910    000000ec     freertos.am263px.r5f.ti-arm-clang.debug.lib : queue.obj (.text.xQueueGenericCreateStatic)
                  7005f9fc    00000004     --HOLE-- [fill = 0]
                  7005fa00    000000ea     drivers.am263px.r5f.ti-arm-clang.freertos.debug.lib : i2c_v1_lld.obj (.text.I2C_lld_targetTransferIntr)
                  7005faea    00000006     --HOLE-- [fill = 0]
                  7005faf0    000000e6                                                         : soc_rcm.obj (.text.SOC_rcmGetCoreFout)
                  7005fbd6    0000000a     --HOLE-- [fill = 0]
                  7005fbe0    000000e6                                                         : soc_rcm.obj (.text.SOC_rcmGetPerFout)
                  7005fcc6    0000000a     --HOLE-- [fill = 0]
                  7005fcd0    000000e4                                                         : edma.obj (.text.EDMA_freeChannelRegion)
                  7005fdb4    0000000c     --HOLE-- [fill = 0]
                  7005fdc0    000000e2                                                         : edma.obj (.text.EDMA_freeParam)
                  7005fea2    0000000e     --HOLE-- [fill = 0]
                  7005feb0    000000e0                                                         : edma.obj (.text.EDMA_freeDmaChannel)
                  7005ff90    000000e0                                                         : edma.obj (.text.EDMA_freeTcc)
                  70060070    000000e0     freertos.am263px.r5f.ti-arm-clang.debug.lib : tasks.obj (.text.xTaskCheckForTimeOut)
                  70060150    000000de     drivers.am263px.r5f.ti-arm-clang.freertos.debug.lib : uart_v0_lld.obj (.text.UART_intrEnable)
                  7006022e    00000002     --HOLE-- [fill = 0]
                  70060230    000000da                                                         : uart_v0_lld.obj (.text.UART_intrDisable)
                  7006030a    00000006     --HOLE-- [fill = 0]
                  70060310    000000d2                                                         : uart_v0_lld.obj (.text.UART_lld_write)
                  700603e2    0000000e     --HOLE-- [fill = 0]
                  700603f0    000000d0     freertos.am263px.r5f.ti-arm-clang.debug.lib : AddrTranslateP_32bit.obj (.text.AddrTranslateP_getLocalAddr)
                  700604c0    000000ce     drivers.am263px.r5f.ti-arm-clang.freertos.debug.lib : edma.obj (.text.EDMA_disableChInShadowRegRegion)
                  7006058e    00000002     --HOLE-- [fill = 0]
                  70060590    000000ce                                                         : uart_v0_lld.obj (.text.UART_lld_writeDma)
                  7006065e    00000002     --HOLE-- [fill = 0]
                  70060660    000000cc                                                         : edma.obj (.text.EDMA_enableChInShadowRegRegion)
                  7006072c    00000004     --HOLE-- [fill = 0]
                  70060730    000000cc     freertos.am263px.r5f.ti-arm-clang.debug.lib : queue.obj (.text.prvCopyDataToQueue)
                  700607fc    00000004     --HOLE-- [fill = 0]
                  70060800    000000ca                                                 : ClockP_freertos.obj (.text.ClockP_getTimeUsec)
                  700608ca    00000006     --HOLE-- [fill = 0]
                  700608d0    000000c8                                                 : tasks.obj (.text.prvCreateIdleTasks)
                  70060998    00000008     --HOLE-- [fill = 0]
                  700609a0    000000c6     drivers.am263px.r5f.ti-arm-clang.freertos.debug.lib : uart_v0_lld.obj (.text.UART_lld_writeIntr)
                  70060a66    0000000a     --HOLE-- [fill = 0]
                  70060a70    000000c4                                                         : edma.obj (.text.EDMA_mapChToEvtQ)
                  70060b34    0000000c     --HOLE-- [fill = 0]
                  70060b40    000000c4     board.am263px.r5f.ti-arm-clang.freertos.debug.lib : eeprom_cat24m.obj (.text.EEPROM_CAT24M_read)
                  70060c04    0000000c     --HOLE-- [fill = 0]
                  70060c10    000000c2     gateway_shared.o (.text.gateway_core0_ipc_callback)
                  70060cd2    0000000e     --HOLE-- [fill = 0]
                  70060ce0    000000c2     freertos.am263px.r5f.ti-arm-clang.debug.lib : queue.obj (.text.vQueueAddToRegistry)
                  70060da2    0000000e     --HOLE-- [fill = 0]
                  70060db0    000000c0     drivers.am263px.r5f.ti-arm-clang.freertos.debug.lib : edma.obj (.text.EDMA_configureChannelRegion)
                  70060e70    000000c0                                                         : soc_rcm.obj (.text.SOC_rcmGetPerHSDivOut)
                  70060f30    000000c0                                                         : uart_v0.obj (.text.UART_flushTxFifo)
                  70060ff0    000000c0     freertos.am263px.r5f.ti-arm-clang.debug.lib : printf.obj (.text._out_rev)
                  700610b0    000000ba     drivers.am263px.r5f.ti-arm-clang.freertos.debug.lib : ipc_notify_v1.obj (.text.IpcNotify_waitSync)
                  7006116a    00000006     --HOLE-- [fill = 0]
                  70061170    000000ba     freertos.am263px.r5f.ti-arm-clang.debug.lib : PmuP_armv7r.obj (.text.pmu)
                  7006122a    00000006     --HOLE-- [fill = 0]
                  70061230    000000b6     drivers.am263px.r5f.ti-arm-clang.freertos.debug.lib : uart_v0_lld.obj (.text.UART_fifoWrite)
                  700612e6    0000000a     --HOLE-- [fill = 0]
                  700612f0    000000b0                                                         : soc_rcm.obj (.text.SOC_rcmSetPeripheralClock)
                  700613a0    000000b0                                                         : uart_v0.obj (.text.UART_init)
                  70061450    000000ae     main.o (.text.ipc_notify_callback_fxn)
                  700614fe    00000002     --HOLE-- [fill = 0]
                  70061500    000000ae     freertos.am263px.r5f.ti-arm-clang.debug.lib : queue.obj (.text.prvUnlockQueue)
                  700615ae    00000002     --HOLE-- [fill = 0]
                  700615b0    000000ae                                                 : tasks.obj (.text.vTaskExitCritical)
                  7006165e    00000002     --HOLE-- [fill = 0]
                  70061660    000000a8     ti_board_open_close.o (.text.Board_eepromOpen)
                  70061708    00000008     --HOLE-- [fill = 0]
                  70061710    000000a8     ti_drivers_open_close.o (.text.Drivers_i2cOpen)
                  700617b8    00000008     --HOLE-- [fill = 0]
                  700617c0    000000a8     ti_drivers_open_close.o (.text.Drivers_uartOpen)
                  70061868    00000008     --HOLE-- [fill = 0]
                  70061870    000000a2     freertos.am263px.r5f.ti-arm-clang.debug.lib : timers.obj (.text.prvCheckForValidListAndQueue)
                  70061912    0000000e     --HOLE-- [fill = 0]
                  70061920    000000a0     drivers.am263px.r5f.ti-arm-clang.freertos.debug.lib : soc_rcm.obj (.text.SOC_rcmGetCoreHSDivOut)
                  700619c0    0000009e     freertos.am263px.r5f.ti-arm-clang.debug.lib : timers.obj (.text.xTimerCreateTimerTask)
                  70061a5e    00000002     --HOLE-- [fill = 0]
                  70061a60    0000009c     gateway_shared.o (.text.gateway_read_motor_states)
                  70061afc    00000004     --HOLE-- [fill = 0]
                  70061b00    00000098     drivers.am263px.r5f.ti-arm-clang.freertos.debug.lib : ipc_notify_v1.obj (.text.IpcNotify_registerClient)
                  70061b98    00000008     --HOLE-- [fill = 0]
                  70061ba0    00000096                                                         : uart_v0_lld.obj (.text.UART_subConfigTCRTLRModeEn)
                  70061c36    0000000a     --HOLE-- [fill = 0]
                  70061c40    00000094     freertos.am263px.r5f.ti-arm-clang.debug.lib : tasks.obj (.text.vTaskStartScheduler)
                  70061cd4    0000000c     --HOLE-- [fill = 0]
                  70061ce0    00000092     drivers.am263px.r5f.ti-arm-clang.freertos.debug.lib : edma.obj (.text.EDMA_unmapChToEvtQ)
                  70061d72    0000000e     --HOLE-- [fill = 0]
                  70061d80    00000092                                                         : i2c_v1_lld.obj (.text.I2CControllerInitExpClk)
                  70061e12    0000000e     --HOLE-- [fill = 0]
                  70061e20    00000092     freertos.am263px.r5f.ti-arm-clang.debug.lib : DebugP_freertos.obj (.text._DebugP_logZone)
                  70061eb2    0000000e     --HOLE-- [fill = 0]
                  70061ec0    0000008e     main.o (.text.main)
                  70061f4e    00000002     --HOLE-- [fill = 0]
                  70061f50    0000008e     freertos.am263px.r5f.ti-arm-clang.debug.lib : tasks.obj (.text.prvInitialiseTaskLists)
                  70061fde    00000002     --HOLE-- [fill = 0]
                  70061fe0    0000008c     drivers.am263px.r5f.ti-arm-clang.freertos.debug.lib : edma.obj (.text.EDMA_disableTransferRegion)
                  7006206c    00000004     --HOLE-- [fill = 0]
                  70062070    0000008c                                                         : edma.obj (.text.EDMA_enableTransferRegion)
                  700620fc    00000004     --HOLE-- [fill = 0]
                  70062100    0000008c     freertos.am263px.r5f.ti-arm-clang.debug.lib : SemaphoreP_freertos.obj (.text.SemaphoreP_pend)
                  7006218c    00000004     --HOLE-- [fill = 0]
                  70062190    0000008c     drivers.am263px.r5f.ti-arm-clang.freertos.debug.lib : uart_v0_lld.obj (.text.UART_writeCancelNoCB)
                  7006221c    00000004     --HOLE-- [fill = 0]
                  70062220    0000008a     freertos.am263px.r5f.ti-arm-clang.debug.lib : tasks.obj (.text.vTaskPlaceOnEventListRestricted)
                  700622aa    00000006     --HOLE-- [fill = 0]
                  700622b0    00000088     drivers.am263px.r5f.ti-arm-clang.freertos.debug.lib : uart_dma_edma.obj (.text.UART_edmaIsrRx)
                  70062338    00000008     --HOLE-- [fill = 0]
                  70062340    00000088                                                         : uart_dma_edma.obj (.text.UART_edmaIsrTx)
                  700623c8    00000008     --HOLE-- [fill = 0]
                  700623d0    00000088     gateway_shared.o (.text.gateway_write_test_data)
                  70062458    00000008     --HOLE-- [fill = 0]
                  70062460    00000086     drivers.am263px.r5f.ti-arm-clang.freertos.debug.lib : uart_v0_lld.obj (.text.UART_lld_flushTxFifo)
                  700624e6    0000000a     --HOLE-- [fill = 0]
                  700624f0    00000086                                                         : uart_v0_lld.obj (.text.UART_tcrTlrBitValRestore)
                  70062576    0000000a     --HOLE-- [fill = 0]
                  70062580    00000086     freertos.am263px.r5f.ti-arm-clang.debug.lib : timers.obj (.text.prvInsertTimerInActiveList)
                  70062606    0000000a     --HOLE-- [fill = 0]
                  70062610    00000086                                                 : timers.obj (.text.prvProcessTimerOrBlockTask)
                  70062696    0000000a     --HOLE-- [fill = 0]
                  700626a0    00000082     drivers.am263px.r5f.ti-arm-clang.freertos.debug.lib : edma.obj (.text.EDMA_allocDmaChannel)
                  70062722    0000000e     --HOLE-- [fill = 0]
                  70062730    00000082                                                         : edma.obj (.text.EDMA_allocParam)
                  700627b2    0000000e     --HOLE-- [fill = 0]
                  700627c0    00000082                                                         : edma.obj (.text.EDMA_allocTcc)
                  70062842    0000000e     --HOLE-- [fill = 0]
                  70062850    00000082                                                         : edma.obj (.text.EDMA_disableTccInShadowRegRegion)
                  700628d2    0000000e     --HOLE-- [fill = 0]
                  700628e0    00000082                                                         : edma.obj (.text.EDMA_enableTccInShadowRegRegion)
                  70062962    0000000e     --HOLE-- [fill = 0]
                  70062970    00000082                                                         : ipc_notify_v1.obj (.text.IpcNotify_syncAll)
                  700629f2    0000000e     --HOLE-- [fill = 0]
                  70062a00    00000080     board.am263px.r5f.ti-arm-clang.freertos.debug.lib : eeprom_cat24m.obj (.text.EEPROM_CAT24M_open)
                  70062a80    00000080     freertos.am263px.r5f.ti-arm-clang.debug.lib : SemaphoreP_freertos.obj (.text.SemaphoreP_constructBinary)
                  70062b00    00000080     drivers.am263px.r5f.ti-arm-clang.freertos.debug.lib : uart_v0_lld.obj (.text.UART_moduleReset)
                  70062b80    0000007e                                                         : i2c_v1_lld.obj (.text.I2C_lld_transferInit)
                  70062bfe    00000002     --HOLE-- [fill = 0]
                  70062c00    0000007e                                                         : uart_v0_lld.obj (.text.UART_readData)
                  70062c7e    00000002     --HOLE-- [fill = 0]
                  70062c80    0000007e     gateway_shared.o (.text.gateway_read_test_data)
                  70062cfe    00000002     --HOLE-- [fill = 0]
                  70062d00    0000007c     freertos.am263px.r5f.ti-arm-clang.debug.lib : DebugP_log.obj (.text._DebugP_assert)
                  70062d7c    00000004     --HOLE-- [fill = 0]
                  70062d80    0000007c                                                 : queue.obj (.text.vQueueUnregisterQueue)
                  70062dfc    00000004     --HOLE-- [fill = 0]
                  70062e00    0000007a     drivers.am263px.r5f.ti-arm-clang.freertos.debug.lib : i2c_v1.obj (.text.I2C_completeCurrTransfer)
                  70062e7a    00000006     --HOLE-- [fill = 0]
                  70062e80    0000007a                                                         : ipc_notify_v1.obj (.text.IpcNotify_mailboxWrite)
                  70062efa    00000006     --HOLE-- [fill = 0]
                  70062f00    0000007a     ti_drivers_config.o (.text.System_init)
                  70062f7a    00000006     --HOLE-- [fill = 0]
                  70062f80    0000007a     drivers.am263px.r5f.ti-arm-clang.freertos.debug.lib : uart_v0.obj (.text.UART_Params_init)
                  70062ffa    00000006     --HOLE-- [fill = 0]
                  70063000    00000078                                                         : edma.obj (.text.EDMA_linkChannel)
                  70063078    00000008     --HOLE-- [fill = 0]
                  70063080    00000078                                                         : i2c_v1_lld.obj (.text.I2C_lld_completeCurrTransfer)
                  700630f8    00000008     --HOLE-- [fill = 0]
                  70063100    00000078     freertos.am263px.r5f.ti-arm-clang.debug.lib : queue.obj (.text.xQueueTakeMutexRecursive)
                  70063178    00000008     --HOLE-- [fill = 0]
                  70063180    00000076                                                 : queue.obj (.text.xQueueGiveMutexRecursive)
                  700631f6    0000000a     --HOLE-- [fill = 0]
                  70063200    00000074                                                 : ClockP_freertos.obj (.text.ClockP_usleep)
                  70063274    0000000c     --HOLE-- [fill = 0]
                  70063280    00000074     drivers.am263px.r5f.ti-arm-clang.freertos.debug.lib : uart_v0_lld.obj (.text.UART_IsBaseAddrValid)
                  700632f4    0000000c     --HOLE-- [fill = 0]
                  70063300    00000072                                                         : edma.obj (.text.EDMA_clrMissEvtRegion)
                  70063372    0000000e     --HOLE-- [fill = 0]
                  70063380    00000072                                                         : ipc_notify_v1.obj (.text.IpcNotify_makeMsg)
                  700633f2    0000000e     --HOLE-- [fill = 0]
                  70063400    0000006e     freertos.am263px.r5f.ti-arm-clang.debug.lib : tasks.obj (.text.prvDeleteTCB)
                  7006346e    00000002     --HOLE-- [fill = 0]
                  70063470    0000006c                                                 : DebugP_shmLogReader.obj (.text.DebugP_shmLogReaderInit)
                  700634dc    00000004     --HOLE-- [fill = 0]
                  700634e0    0000006c     log_reader_task.o (.text.log_reader_task_create)
                  7006354c    00000004     --HOLE-- [fill = 0]
                  70063550    0000006c     freertos.am263px.r5f.ti-arm-clang.debug.lib : tasks.obj (.text.vTaskDelay)
                  700635bc    00000004     --HOLE-- [fill = 0]
                  700635c0    0000006c                                                 : tasks.obj (.text.vTaskEnterCritical)
                  7006362c    00000004     --HOLE-- [fill = 0]
                  70063630    0000006a     drivers.am263px.r5f.ti-arm-clang.freertos.debug.lib : ipc_notify_v1.obj (.text.IpcNotify_mailboxReadSwQ)
                  7006369a    00000006     --HOLE-- [fill = 0]
                  700636a0    0000006a     freertos.am263px.r5f.ti-arm-clang.debug.lib : list.obj (.text.vListInsert)
                  7006370a    00000006     --HOLE-- [fill = 0]
                  70063710    00000068     drivers.am263px.r5f.ti-arm-clang.freertos.debug.lib : edma.obj (.text.EDMA_getBaseAddr)
                  70063778    00000008     --HOLE-- [fill = 0]
                  70063780    00000068                                                         : uart_v0_lld.obj (.text.UART_divisorValCompute)
                  700637e8    00000008     --HOLE-- [fill = 0]
                  700637f0    00000066     board.am263px.r5f.ti-arm-clang.freertos.debug.lib : eeprom.obj (.text.EEPROM_open)
                  70063856    0000000a     --HOLE-- [fill = 0]
                  70063860    00000066     drivers.am263px.r5f.ti-arm-clang.freertos.debug.lib : i2c_v1.obj (.text.I2C_init)
                  700638c6    0000000a     --HOLE-- [fill = 0]
                  700638d0    00000066     freertos.am263px.r5f.ti-arm-clang.debug.lib : SemaphoreP_freertos.obj (.text.SemaphoreP_post)
                  70063936    0000000a     --HOLE-- [fill = 0]
                  70063940    00000064     drivers.am263px.r5f.ti-arm-clang.freertos.debug.lib : soc_rcm.obj (.text.SOC_rcmGetR5Clock)
                  700639a4    0000000c     --HOLE-- [fill = 0]
                  700639b0    00000064                                                         : soc_rcm.obj (.text.SOC_rcmIsR5FInLockStepMode)
                  70063a14    0000000c     --HOLE-- [fill = 0]
                  70063a20    00000064                                                         : uart_v0_lld.obj (.text.UART_fifoRegisterWrite)
                  70063a84    0000000c     --HOLE-- [fill = 0]
                  70063a90    00000064                                                         : uart_v0_lld.obj (.text.UART_lld_deInitDma)
                  70063af4    0000000c     --HOLE-- [fill = 0]
                  70063b00    00000064     freertos.am263px.r5f.ti-arm-clang.debug.lib : TaskP_freertos.obj (.text.vApplicationLoadHook)
                  70063b64    0000000c     --HOLE-- [fill = 0]
                  70063b70    00000064                                                 : queue.obj (.text.vQueueWaitForMessageRestricted)
                  70063bd4    0000000c     --HOLE-- [fill = 0]
                  70063be0    00000062     drivers.am263px.r5f.ti-arm-clang.freertos.debug.lib : soc_rcm.obj (.text.SOC_rcmInsert16)
                  70063c42    0000000e     --HOLE-- [fill = 0]
                  70063c50    00000060                                                         : uart_v0_lld.obj (.text.UART_getChar)
                  70063cb0    00000060                                                         : uart_v0_lld.obj (.text.UART_writeData)
                  70063d10    0000005e     freertos.am263px.r5f.ti-arm-clang.debug.lib : SemaphoreP_freertos.obj (.text.SemaphoreP_constructMutex)
                  70063d6e    00000002     --HOLE-- [fill = 0]
                  70063d70    0000005e     gateway_shared.o (.text.gateway_notify_test_data_ready)
                  70063dce    00000002     --HOLE-- [fill = 0]
                  70063dd0    0000005c     ti_power_clock_config.o (.text.Module_clockSetFrequency)
                  70063e2c    00000004     --HOLE-- [fill = 0]
                  70063e30    0000005c     drivers.am263px.r5f.ti-arm-clang.freertos.debug.lib : uart_v0_lld.obj (.text.UART_lld_deInit)
                  70063e8c    00000004     --HOLE-- [fill = 0]
                  70063e90    0000005c     freertos.am263px.r5f.ti-arm-clang.debug.lib : tasks.obj (.text.xTaskCreateStatic)
                  70063eec    00000004     --HOLE-- [fill = 0]
                  70063ef0    0000005a     drivers.am263px.r5f.ti-arm-clang.freertos.debug.lib : uart_dma_edma.obj (.text.UART_lld_dmaDisableChannel)
                  70063f4a    00000006     --HOLE-- [fill = 0]
                  70063f50    0000005a                                                         : uart_v0_lld.obj (.text.UART_regConfigModeEnable)
                  70063faa    00000006     --HOLE-- [fill = 0]
                  70063fb0    0000005a     freertos.am263px.r5f.ti-arm-clang.debug.lib : tasks.obj (.text.prvCheckTasksWaitingTermination)
                  7006400a    00000006     --HOLE-- [fill = 0]
                  70064010    00000058     drivers.am263px.r5f.ti-arm-clang.freertos.debug.lib : soc_rcm.obj (.text.SOC_rcmGetModuleClkDivVal)
                  70064068    00000008     --HOLE-- [fill = 0]
                  70064070    00000058                                                         : uart_v0.obj (.text.UART_getHandle)
                  700640c8    00000008     --HOLE-- [fill = 0]
                  700640d0    00000058     main.o (.text.udp_tx_task)
                  70064128    00000008     --HOLE-- [fill = 0]
                  70064130    00000056     drivers.am263px.r5f.ti-arm-clang.freertos.debug.lib : i2c_v1.obj (.text.I2C_getHandle)
                  70064186    0000000a     --HOLE-- [fill = 0]
                  70064190    00000056                                                         : uart_v0.obj (.text.UART_lld_readCompleteCallback)
                  700641e6    0000000a     --HOLE-- [fill = 0]
                  700641f0    00000056                                                         : uart_v0.obj (.text.UART_lld_writeCompleteCallback)
                  70064246    0000000a     --HOLE-- [fill = 0]
                  70064250    00000054     freertos.am263px.r5f.ti-arm-clang.debug.lib : DebugP_shmLogReader_freertos.obj (.text.DebugP_shmLogReaderTaskCreate)
                  700642a4    0000000c     --HOLE-- [fill = 0]
                  700642b0    00000054     drivers.am263px.r5f.ti-arm-clang.freertos.debug.lib : edma.obj (.text.EDMA_setPaRAM)
                  70064304    0000000c     --HOLE-- [fill = 0]
                  70064310    00000054                                                         : uart_v0_lld.obj (.text.UART_OperModeValid)
                  70064364    0000000c     --HOLE-- [fill = 0]
                  70064370    00000054     freertos.am263px.r5f.ti-arm-clang.debug.lib : timers.obj (.text.prvProcessExpiredTimer)
                  700643c4    00000054     libc.a : autoinit.c.obj (.text:__TI_auto_init_nobinit_nopinit)
                  70064418    00000008     --HOLE-- [fill = 0]
                  70064420    00000052     ti_dpl_config.o (.text.Dpl_init)
                  70064472    0000000e     --HOLE-- [fill = 0]
                  70064480    00000052     drivers.am263px.r5f.ti-arm-clang.freertos.debug.lib : i2c_v1_lld.obj (.text.I2C_lld_deInit)
                  700644d2    0000000e     --HOLE-- [fill = 0]
                  700644e0    00000052     freertos.am263px.r5f.ti-arm-clang.debug.lib : timers.obj (.text.prvSwitchTimerLists)
                  70064532    0000000e     --HOLE-- [fill = 0]
                  70064540    00000050     ti_board_open_close.o (.text.Board_eepromClose)
                  70064590    00000050     ti_drivers_open_close.o (.text.Drivers_i2cClose)
                  700645e0    00000050     ti_drivers_open_close.o (.text.Drivers_uartClose)
                  70064630    00000050     drivers.am263px.r5f.ti-arm-clang.freertos.debug.lib : pinmux.obj (.text.Pinmux_config)
                  70064680    00000050                                                         : uart_v0_lld.obj (.text.UART_checkCharsAvailInFifo)
                  700646d0    0000004e                                                         : edma.obj (.text.EDMA_clrEvtRegion)
                  7006471e    00000002     --HOLE-- [fill = 0]
                  70064720    0000004e                                                         : edma.obj (.text.EDMA_disableDmaEvtRegion)
                  7006476e    00000002     --HOLE-- [fill = 0]
                  70064770    0000004e                                                         : edma.obj (.text.EDMA_disableEvtIntrRegion)
                  700647be    00000002     --HOLE-- [fill = 0]
                  700647c0    0000004e                                                         : edma.obj (.text.EDMA_enableDmaEvtRegion)
                  7006480e    00000002     --HOLE-- [fill = 0]
                  70064810    0000004e                                                         : edma.obj (.text.EDMA_enableEvtIntrRegion)
                  7006485e    00000002     --HOLE-- [fill = 0]
                  70064860    0000004e                                                         : edma.obj (.text.EDMA_setEvtRegion)
                  700648ae    00000002     --HOLE-- [fill = 0]
                  700648b0    0000004e     freertos.am263px.r5f.ti-arm-clang.debug.lib : TaskP_freertos.obj (.text.TaskP_loadUpdateAll)
                  700648fe    00000002     --HOLE-- [fill = 0]
                  70064900    0000004e                                                 : queue.obj (.text.vQueueDelete)
                  7006494e    00000002     --HOLE-- [fill = 0]
                  70064950    0000004c     drivers.am263px.r5f.ti-arm-clang.freertos.debug.lib : edma.obj (.text.EDMA_ccPaRAMEntry_init)
                  7006499c    00000004     --HOLE-- [fill = 0]
                  700649a0    0000004c                                                         : edma.obj (.text.EDMA_mapQdmaChToPaRAM)
                  700649ec    00000004     --HOLE-- [fill = 0]
                  700649f0    0000004c                                                         : edma.obj (.text.EDMA_readEventStatusRegion)
                  70064a3c    00000004     --HOLE-- [fill = 0]
                  70064a40    0000004c                                                         : ipc_notify_v1.obj (.text.IpcNotify_unregisterClient)
                  70064a8c    00000004     --HOLE-- [fill = 0]
                  70064a90    0000004c     ti_power_clock_config.o (.text.Module_clockEnable)
                  70064adc    00000004     --HOLE-- [fill = 0]
                  70064ae0    0000004c     freertos.am263px.r5f.ti-arm-clang.debug.lib : tasks.obj (.text.vTaskPlaceOnEventList)
                  70064b2c    00000004     --HOLE-- [fill = 0]
                  70064b30    0000004a     drivers.am263px.r5f.ti-arm-clang.freertos.debug.lib : ipc_notify_v1.obj (.text.IpcNotify_Params_init)
                  70064b7a    00000006     --HOLE-- [fill = 0]
                  70064b80    0000004a                                                         : soc_rcm.obj (.text.SOC_rcmGetCR5SysclkInFrequency)
                  70064bca    00000006     --HOLE-- [fill = 0]
                  70064bd0    0000004a                                                         : uart_v0_lld.obj (.text.UART_getIntrIdentityStatus)
                  70064c1a    00000006     --HOLE-- [fill = 0]
                  70064c20    0000004a                                                         : uart_v0_lld.obj (.text.UART_lineCharConfig)
                  70064c6a    00000006     --HOLE-- [fill = 0]
                  70064c70    00000048                                                         : i2c_v1.obj (.text.I2C_hwiFxn)
                  70064cb8    00000008     --HOLE-- [fill = 0]
                  70064cc0    00000048                                                         : uart_v0_lld.obj (.text.UART_resetModule)
                  70064d08    00000008     --HOLE-- [fill = 0]
                  70064d10    00000048     freertos.am263px.r5f.ti-arm-clang.debug.lib : queue.obj (.text.prvInitialiseNewQueue)
                  70064d58    00000008     --HOLE-- [fill = 0]
                  70064d60    00000048                                                 : list.obj (.text.uxListRemove)
                  70064da8    00000008     --HOLE-- [fill = 0]
                  70064db0    00000046                                                 : DebugP_uartLogWriter.obj (.text.DebugP_uartLogWriterPutChar)
                  70064df6    0000000a     --HOLE-- [fill = 0]
                  70064e00    00000046                                                 : TaskP_freertos.obj (.text.TaskP_updateLoad)
                  70064e46    0000000a     --HOLE-- [fill = 0]
                  70064e50    00000046     drivers.am263px.r5f.ti-arm-clang.freertos.debug.lib : uart_v0_lld.obj (.text.UART_i2310WA)
                  70064e96    0000000a     --HOLE-- [fill = 0]
                  70064ea0    00000046                                                         : uart_v0_lld.obj (.text.UART_readLineStatus)
                  70064ee6    0000000a     --HOLE-- [fill = 0]
                  70064ef0    00000044                                                         : ipc_notify_v1.obj (.text.IpcNotify_getWriteMailbox)
                  70064f34    0000000c     --HOLE-- [fill = 0]
                  70064f40    00000044                                                         : soc_rcm.obj (.text.SOC_rcmExtract8)
                  70064f84    0000000c     --HOLE-- [fill = 0]
                  70064f90    00000044                                                         : soc_rcm.obj (.text.SOC_rcmMake16)
                  70064fd4    0000000c     --HOLE-- [fill = 0]
                  70064fe0    00000044     freertos.am263px.r5f.ti-arm-clang.debug.lib : TaskP_freertos.obj (.text.TaskP_updateIdleTaskLoad)
                  70065024    0000000c     --HOLE-- [fill = 0]
                  70065030    00000044                                                 : TaskP_freertos.obj (.text.TaskP_updateTotalRunTime)
                  70065074    0000000c     --HOLE-- [fill = 0]
                  70065080    00000044                                                 : printf.obj (.text._strnlen_s)
                  700650c4    0000000c     --HOLE-- [fill = 0]
                  700650d0    00000044                                                 : timers.obj (.text.prvSampleTimeNow)
                  70065114    0000000c     --HOLE-- [fill = 0]
                  70065120    00000042     drivers.am263px.r5f.ti-arm-clang.freertos.debug.lib : uart_v0.obj (.text.UART_checkOpenParams)
                  70065162    0000000e     --HOLE-- [fill = 0]
                  70065170    00000042     freertos.am263px.r5f.ti-arm-clang.debug.lib : queue.obj (.text.prvCopyDataFromQueue)
                  700651b2    0000000e     --HOLE-- [fill = 0]
                  700651c0    00000040     drivers.am263px.r5f.ti-arm-clang.freertos.debug.lib : i2c_v1_lld.obj (.text.I2C_lld_transferIntr)
                  70065200    00000040                                                         : i2c_v1_lld.obj (.text.I2C_lld_transferPoll)
                  70065240    00000040     libc.a : memory.c.obj (.text.free_list_insert)
                  70065280    00000040     freertos.am263px.r5f.ti-arm-clang.debug.lib : timers.obj (.text.prvGetNextExpireTime)
                  700652c0    0000003e     drivers.am263px.r5f.ti-arm-clang.freertos.debug.lib : pinmux.obj (.text.Pinmux_unlockMMR)
                  700652fe    00000002     --HOLE-- [fill = 0]
                  70065300    0000003e                                                         : uart_v0_lld.obj (.text.UART_IsHWFlowCtrlValid)
                  7006533e    00000002     --HOLE-- [fill = 0]
                  70065340    0000003e                                                         : uart_v0_lld.obj (.text.UART_spaceAvail)
                  7006537e    00000002     --HOLE-- [fill = 0]
                  70065380    0000003c     board.am263px.r5f.ti-arm-clang.freertos.debug.lib : eeprom_cat24m.obj (.text.EEPROM_CAT24M_close)
                  700653bc    00000004     --HOLE-- [fill = 0]
                  700653c0    0000003c     drivers.am263px.r5f.ti-arm-clang.freertos.debug.lib : uart_v0_lld.obj (.text.UART_IsParityTypeValid)
                  700653fc    00000004     --HOLE-- [fill = 0]
                  70065400    0000003c                                                         : uart_v0_lld.obj (.text.UART_IsTxRxFifoEmpty)
                  7006543c    00000004     --HOLE-- [fill = 0]
                  70065440    0000003c                                                         : uart_v0_lld.obj (.text.UART_enhanFuncEnable)
                  7006547c    00000004     --HOLE-- [fill = 0]
                  70065480    0000003c     freertos.am263px.r5f.ti-arm-clang.debug.lib : tasks.obj (.text.prvResetNextTaskUnblockTime)
                  700654bc    00000004     --HOLE-- [fill = 0]
                  700654c0    0000003c                                                 : port.obj (.text.vPortTimerTickHandler)
                  700654fc    00000004     --HOLE-- [fill = 0]
                  70065500    0000003a     drivers.am263px.r5f.ti-arm-clang.freertos.debug.lib : soc.obj (.text.SOC_moduleSetClockFrequency)
                  7006553a    00000006     --HOLE-- [fill = 0]
                  70065540    0000003a     freertos.am263px.r5f.ti-arm-clang.debug.lib : printf.obj (.text._atoi)
                  7006557a    00000006     --HOLE-- [fill = 0]
                  70065580    0000003a                                                 : tasks.obj (.text.ulTaskGetIdleRunTimeCounter)
                  700655ba    00000006     --HOLE-- [fill = 0]
                  700655c0    0000003a                                                 : list.obj (.text.vListInsertEnd)
                  700655fa    00000006     --HOLE-- [fill = 0]
                  70065600    00000038     drivers.am263px.r5f.ti-arm-clang.freertos.debug.lib : i2c_v1.obj (.text.I2C_LLD_transferCompleteCallback)
                  70065638    00000008     --HOLE-- [fill = 0]
                  70065640    00000038                                                         : uart_v0_lld.obj (.text.UART_writeDataPolling)
                  70065678    00000038     freertos.am263px.r5f.ti-arm-clang.debug.lib : PmuP_armv7r_asm.obj (.text.pmu)
                  700656b0    00000038                                                 : tasks.obj (.text.xTaskGetSchedulerState)
                  700656e8    00000008     --HOLE-- [fill = 0]
                  700656f0    00000036     drivers.am263px.r5f.ti-arm-clang.freertos.debug.lib : edma.obj (.text.EDMA_getRegionId)
                  70065726    0000000a     --HOLE-- [fill = 0]
                  70065730    00000036                                                         : ipc_notify_v1.obj (.text.IpcNotify_syncCallback)
                  70065766    0000000a     --HOLE-- [fill = 0]
                  70065770    00000034                                                         : pinmux.obj (.text.Pinmux_lockMMR)
                  700657a4    0000000c     --HOLE-- [fill = 0]
                  700657b0    00000034     freertos.am263px.r5f.ti-arm-clang.debug.lib : TimerP_rti_priv.obj (.text.TimerP_Params_initPriv)
                  700657e4    0000000c     --HOLE-- [fill = 0]
                  700657f0    00000034     drivers.am263px.r5f.ti-arm-clang.freertos.debug.lib : uart_v0_lld.obj (.text.UART_IsDataLengthValid)
                  70065824    0000000c     --HOLE-- [fill = 0]
                  70065830    00000034                                                         : uart_v0_lld.obj (.text.UART_checkTransaction)
                  70065864    00000034     libc.a : memory.c.obj (.text.free_list_remove)
                  70065898    00000008     --HOLE-- [fill = 0]
                  700658a0    00000034     gateway_shared.o (.text.gateway_core0_finalize)
                  700658d4    0000000c     --HOLE-- [fill = 0]
                  700658e0    00000034     log_reader_task.o (.text.log_reader_task)
                  70065914    0000000c     --HOLE-- [fill = 0]
                  70065920    00000034     freertos.am263px.r5f.ti-arm-clang.debug.lib : timers.obj (.text.prvReloadTimer)
                  70065954    0000000c     --HOLE-- [fill = 0]
                  70065960    00000032                                                 : ClockP_freertos.obj (.text.ClockP_timerTickIsr)
                  70065992    0000000e     --HOLE-- [fill = 0]
                  700659a0    00000032     drivers.am263px.r5f.ti-arm-clang.freertos.debug.lib : uart_v0_lld.obj (.text.HW_WR_FIELD32_RAW)
                  700659d2    0000000e     --HOLE-- [fill = 0]
                  700659e0    00000032                                                         : i2c_v1_lld.obj (.text.I2C_lld_Message_init)
                  70065a12    0000000e     --HOLE-- [fill = 0]
                  70065a20    00000032                                                         : ipc_notify_v1.obj (.text.IpcNotify_mailboxIsPendingIntr)
                  70065a52    0000000e     --HOLE-- [fill = 0]
                  70065a60    00000032     freertos.am263px.r5f.ti-arm-clang.debug.lib : TimerP_rti_priv.obj (.text.TimerP_getCountPriv)
                  70065a92    0000000e     --HOLE-- [fill = 0]
                  70065aa0    00000032     drivers.am263px.r5f.ti-arm-clang.freertos.debug.lib : uart_v0_lld.obj (.text.UART_enhanFuncBitValRestore)
                  70065ad2    0000000e     --HOLE-- [fill = 0]
                  70065ae0    00000032                                                         : uart_v0_lld.obj (.text.UART_hardwareFlowCtrlOptSet)
                  70065b12    0000000e     --HOLE-- [fill = 0]
                  70065b20    00000032     freertos.am263px.r5f.ti-arm-clang.debug.lib : port.obj (.text.vApplicationStackOverflowHook)
                  70065b52    0000000e     --HOLE-- [fill = 0]
                  70065b60    00000032                                                 : queue.obj (.text.xQueueCreateMutexStatic)
                  70065b92    0000000e     --HOLE-- [fill = 0]
                  70065ba0    00000030     board.am263px.r5f.ti-arm-clang.freertos.debug.lib : eeprom.obj (.text.EEPROM_close)
                  70065bd0    00000030     drivers.am263px.r5f.ti-arm-clang.freertos.debug.lib : i2c_v1_lld.obj (.text.I2CControllerControl)
                  70065c00    00000030                                                         : ipc_notify_v1.obj (.text.IpcNotify_getReadSwQ)
                  70065c30    00000030                                                         : uart_v0_lld.obj (.text.UART_flowCtrlTrigLvlConfig)
                  70065c60    0000002e                                                         : uart_dma_edma.obj (.text.UART_lld_dmaInit)
                  70065c8e    00000002     --HOLE-- [fill = 0]
                  70065c90    0000002e     freertos.am263px.r5f.ti-arm-clang.debug.lib : printf.obj (.text._is_digit)
                  70065cbe    00000002     --HOLE-- [fill = 0]
                  70065cc0    0000002e                                                 : queue.obj (.text.prvIsQueueFull)
                  70065cee    00000002     --HOLE-- [fill = 0]
                  70065cf0    0000002e                                                 : list.obj (.text.vListInitialise)
                  70065d1e    00000002     --HOLE-- [fill = 0]
                  70065d20    0000002c                                                 : DebugP_log.obj (.text.DebugP_logZoneEnable)
                  70065d4c    00000004     --HOLE-- [fill = 0]
                  70065d50    0000002c     drivers.am263px.r5f.ti-arm-clang.freertos.debug.lib : i2c_v1_lld.obj (.text.I2CModeControl)
                  70065d7c    00000004     --HOLE-- [fill = 0]
                  70065d80    0000002c                                                         : ipc_notify_v1.obj (.text.IpcNotify_getReadMailbox)
                  70065dac    00000004     --HOLE-- [fill = 0]
                  70065db0    0000002c     freertos.am263px.r5f.ti-arm-clang.debug.lib : TaskP_freertos.obj (.text.TaskP_calcCounterDiff)
                  70065ddc    00000004     --HOLE-- [fill = 0]
                  70065de0    0000002c     gateway_shared.o (.text.gateway_core0_init)
                  70065e0c    00000004     --HOLE-- [fill = 0]
                  70065e10    0000002c     freertos.am263px.r5f.ti-arm-clang.debug.lib : queue.obj (.text.prvInitialiseMutex)
                  70065e3c    00000004     --HOLE-- [fill = 0]
                  70065e40    0000002c                                                 : tasks.obj (.text.ulTaskGetRunTimeCounter)
                  70065e6c    00000004     --HOLE-- [fill = 0]
                  70065e70    0000002c                                                 : port.obj (.text.vApplicationGetIdleTaskMemory)
                  70065e9c    00000004     --HOLE-- [fill = 0]
                  70065ea0    0000002c                                                 : port.obj (.text.vApplicationGetTimerTaskMemory)
                  70065ecc    00000004     --HOLE-- [fill = 0]
                  70065ed0    0000002a     drivers.am263px.r5f.ti-arm-clang.freertos.debug.lib : i2c_v1_lld.obj (.text.I2C_lld_Transaction_init)
                  70065efa    00000006     --HOLE-- [fill = 0]
                  70065f00    0000002a                                                         : i2c_v1.obj (.text.I2C_transferCallback)
                  70065f2a    00000006     --HOLE-- [fill = 0]
                  70065f30    0000002a                                                         : uart_v0.obj (.text.UART_Transaction_init)
                  70065f5a    00000006     --HOLE-- [fill = 0]
                  70065f60    0000002a                                                         : uart_v0_lld.obj (.text.UART_intr2Disable)
                  70065f8a    00000006     --HOLE-- [fill = 0]
                  70065f90    0000002a                                                         : uart_v0_lld.obj (.text.UART_lld_Transaction_init)
                  70065fba    00000006     --HOLE-- [fill = 0]
                  70065fc0    0000002a                                                         : uart_v0_lld.obj (.text.UART_operatingModeSelect)
                  70065fea    00000006     --HOLE-- [fill = 0]
                  70065ff0    00000028     freertos.am263px.r5f.ti-arm-clang.debug.lib : CpuId_armv7r.obj (.text.CSL_armR5GetCpuID)
                  70066018    00000008     --HOLE-- [fill = 0]
                  70066020    00000028     main.o (.text.init_ethernet)
                  70066048    00000008     --HOLE-- [fill = 0]
                  70066050    00000028     main.o (.text.init_udp)
                  70066078    00000008     --HOLE-- [fill = 0]
                  70066080    00000028     freertos.am263px.r5f.ti-arm-clang.debug.lib : tasks.obj (.text.prvIdleTask)
                  700660a8    00000008     --HOLE-- [fill = 0]
                  700660b0    00000028                                                 : queue.obj (.text.prvIsQueueEmpty)
                  700660d8    00000008     --HOLE-- [fill = 0]
                  700660e0    00000028                                                 : printf.obj (.text.vprintf_)
                  70066108    00000008     --HOLE-- [fill = 0]
                  70066110    00000026     drivers.am263px.r5f.ti-arm-clang.freertos.debug.lib : edma.obj (.text.EDMA_disableQdmaEvtRegion)
                  70066136    0000000a     --HOLE-- [fill = 0]
                  70066140    00000026                                                         : edma.obj (.text.EDMA_enableQdmaEvtRegion)
                  70066166    0000000a     --HOLE-- [fill = 0]
                  70066170    00000026                                                         : edma.obj (.text.EDMA_validateIntrObject)
                  70066196    0000000a     --HOLE-- [fill = 0]
                  700661a0    00000026     freertos.am263px.r5f.ti-arm-clang.debug.lib : queue.obj (.text.prvGetDisinheritPriorityAfterTimeout)
                  700661c6    0000000a     --HOLE-- [fill = 0]
                  700661d0    00000026                                                 : tasks.obj (.text.xTaskGetTickCountFromISR)
                  700661f6    0000000a     --HOLE-- [fill = 0]
                  70066200    00000024     drivers.am263px.r5f.ti-arm-clang.freertos.debug.lib : i2c_v1_lld.obj (.text.I2CControllerBusBusy)
                  70066224    0000000c     --HOLE-- [fill = 0]
                  70066230    00000024                                                         : i2c_v1.obj (.text.I2C_Transaction_init)
                  70066254    0000000c     --HOLE-- [fill = 0]
                  70066260    00000024     ti_drivers_config.o (.text.IpcNotify_allocSwQueue)
                  70066284    0000000c     --HOLE-- [fill = 0]
                  70066290    00000024     ti_drivers_config.o (.text.IpcNotify_getConfig)
                  700662b4    0000000c     --HOLE-- [fill = 0]
                  700662c0    00000024     drivers.am263px.r5f.ti-arm-clang.freertos.debug.lib : uart_v0_lld.obj (.text.UART_IsRxTrigLvlValid)
                  700662e4    0000000c     --HOLE-- [fill = 0]
                  700662f0    00000024                                                         : uart_v0_lld.obj (.text.UART_IsStopBitsValid)
                  70066314    0000000c     --HOLE-- [fill = 0]
                  70066320    00000024                                                         : uart_v0_lld.obj (.text.UART_IsTxTrigLvlValid)
                  70066344    00000024     libclang_rt.builtins.a : aeabi_uldivmod.S.obj (.text.__aeabi_uldivmod)
                  70066368    00000008     --HOLE-- [fill = 0]
                  70066370    00000024     freertos.am263px.r5f.ti-arm-clang.debug.lib : printf.obj (.text._out_char)
                  70066394    0000000c     --HOLE-- [fill = 0]
                  700663a0    00000024                                                 : tasks.obj (.text.pvTaskIncrementMutexHeldCount)
                  700663c4    0000000c     --HOLE-- [fill = 0]
                  700663d0    00000024                                                 : tasks.obj (.text.vTaskInternalSetTimeOutState)
                  700663f4    0000000c     --HOLE-- [fill = 0]
                  70066400    00000024                                                 : port.obj (.text.xPortStartScheduler)
                  70066424    0000000c     --HOLE-- [fill = 0]
                  70066430    00000022                                                 : ClockP_freertos.obj (.text.ClockP_getTicks)
                  70066452    0000000e     --HOLE-- [fill = 0]
                  70066460    00000022     drivers.am263px.r5f.ti-arm-clang.freertos.debug.lib : edma.obj (.text.EDMA_channelToParamMap)
                  70066482    0000000e     --HOLE-- [fill = 0]
                  70066490    00000022     freertos.am263px.r5f.ti-arm-clang.debug.lib : SemaphoreP_freertos.obj (.text.SemaphoreP_destruct)
                  700664b2    0000000e     --HOLE-- [fill = 0]
                  700664c0    00000022     drivers.am263px.r5f.ti-arm-clang.freertos.debug.lib : i2c_v1_lld.obj (.text.lld_check_param)
                  700664e2    0000000e     --HOLE-- [fill = 0]
                  700664f0    00000020     freertos.am263px.r5f.ti-arm-clang.debug.lib : ClockP_freertos.obj (.text.ClockP_usecToTicks)
                  70066510    00000020     drivers.am263px.r5f.ti-arm-clang.freertos.debug.lib : uart_v0_lld.obj (.text.HW_RD_FIELD32_RAW)
                  70066530    00000020     main.o (.text.udp_rx_task)
                  70066550    00000020     freertos.am263px.r5f.ti-arm-clang.debug.lib : heap_3.obj (.text.vPortFree)
                  70066570    0000001e     drivers.am263px.r5f.ti-arm-clang.freertos.debug.lib : edma.obj (.text.EDMA_getEventStatusHigh)
                  7006658e    00000002     --HOLE-- [fill = 0]
                  70066590    0000001e                                                         : i2c_v1_lld.obj (.text.I2CControllerEnable)
                  700665ae    00000002     --HOLE-- [fill = 0]
                  700665b0    0000001e                                                         : i2c_v1_lld.obj (.text.I2CTargetEnable)
                  700665ce    00000002     --HOLE-- [fill = 0]
                  700665d0    0000001e                                                         : soc.obj (.text.SOC_getSelfCpuClk)
                  700665ee    00000002     --HOLE-- [fill = 0]
                  700665f0    0000001e                                                         : soc.obj (.text.SOC_moduleClockEnable)
                  7006660e    00000002     --HOLE-- [fill = 0]
                  70066610    0000001e                                                         : uart_v0_lld.obj (.text.UART_breakCtl)
                  7006662e    00000002     --HOLE-- [fill = 0]
                  70066630    0000001e                                                         : uart_v0_lld.obj (.text.UART_lld_Transaction_deInit)
                  7006664e    00000002     --HOLE-- [fill = 0]
                  70066650    0000001e                                                         : uart_v0_lld.obj (.text.UART_writeInterrupt)
                  7006666e    00000002     --HOLE-- [fill = 0]
                  70066670    0000001e     freertos.am263px.r5f.ti-arm-clang.debug.lib : timers.obj (.text.prvTimerTask)
                  7006668e    00000002     --HOLE-- [fill = 0]
                  70066690    0000001e                                                 : tasks.obj (.text.xTaskGetTickCount)
                  700666ae    00000002     --HOLE-- [fill = 0]
                  700666b0    0000001c     ti_board_open_close.o (.text.Board_driversOpen)
                  700666cc    00000004     --HOLE-- [fill = 0]
                  700666d0    0000001c     drivers.am263px.r5f.ti-arm-clang.freertos.debug.lib : edma.obj (.text.EDMA_getEventStatus)
                  700666ec    00000004     --HOLE-- [fill = 0]
                  700666f0    0000001c                                                         : uart_v0_lld.obj (.text.UART_IsParameter)
                  7006670c    00000004     --HOLE-- [fill = 0]
                  70066710    0000001c     freertos.am263px.r5f.ti-arm-clang.debug.lib : port.obj (.text.vPortYeildFromISR)
                  7006672c    0000001c     libc.a : memcpy32.S.obj (.text:TI_memcpy_small)
                  70066748    00000008     --HOLE-- [fill = 0]
                  70066750    0000001a     drivers.am263px.r5f.ti-arm-clang.freertos.debug.lib : i2c_v1.obj (.text.I2C_Params_init)
                  7006676a    00000006     --HOLE-- [fill = 0]
                  70066770    0000001a                                                         : uart_v0_lld.obj (.text.UART_fifoCharGet)
                  7006678a    00000006     --HOLE-- [fill = 0]
                  70066790    0000001a                                                         : uart_v0_lld.obj (.text.UART_timeGuardConfig)
                  700667aa    00000006     --HOLE-- [fill = 0]
                  700667b0    00000018     freertos.am263px.r5f.ti-arm-clang.debug.lib : ClockP_freertos.obj (.text.ClockP_ticksToUsec)
                  700667c8    00000008     --HOLE-- [fill = 0]
                  700667d0    00000018     drivers.am263px.r5f.ti-arm-clang.freertos.debug.lib : edma.obj (.text.EDMA_isInterruptEnabled)
                  700667e8    00000008     --HOLE-- [fill = 0]
                  700667f0    00000018                                                         : i2c_v1_lld.obj (.text.I2CControllerDataPut)
                  70066808    00000008     --HOLE-- [fill = 0]
                  70066810    00000018                                                         : i2c_v1_lld.obj (.text.I2CControllerErr)
                  70066828    00000008     --HOLE-- [fill = 0]
                  70066830    00000018                                                         : i2c_v1_lld.obj (.text.I2CControllerIntDisableEx)
                  70066848    00000008     --HOLE-- [fill = 0]
                  70066850    00000018                                                         : i2c_v1_lld.obj (.text.I2CControllerIntEnableEx)
                  70066868    00000008     --HOLE-- [fill = 0]
                  70066870    00000018                                                         : ipc_notify_v1.obj (.text.IpcNotify_mailboxClearAllInt)
                  70066888    00000008     --HOLE-- [fill = 0]
                  70066890    00000018                                                         : ipc_notify_v1_cfg.obj (.text.IpcNotify_trigInterrupt)
                  700668a8    00000008     --HOLE-- [fill = 0]
                  700668b0    00000018     freertos.am263px.r5f.ti-arm-clang.debug.lib : TimerP_rti_priv.obj (.text.TimerP_getReloadCountPriv)
                  700668c8    00000008     --HOLE-- [fill = 0]
                  700668d0    00000018     drivers.am263px.r5f.ti-arm-clang.freertos.debug.lib : uart_v0_lld.obj (.text.UART_divisorLatchDisable)
                  700668e8    00000008     --HOLE-- [fill = 0]
                  700668f0    00000018                                                         : uart_v0_lld.obj (.text.UART_modemControlReset)
                  70066908    00000008     --HOLE-- [fill = 0]
                  70066910    00000018                                                         : uart_v0_lld.obj (.text.UART_putChar)
                  70066928    00000018     libc.a : memset32.S.obj (.text:TI_memset_small)
                  70066940    00000016     drivers.am263px.r5f.ti-arm-clang.freertos.debug.lib : i2c_v1_lld.obj (.text.I2CControllerDisable)
                  70066956    0000000a     --HOLE-- [fill = 0]
                  70066960    00000016                                                         : i2c_v1_lld.obj (.text.I2CControllerIntStatusEx)
                  70066976    0000000a     --HOLE-- [fill = 0]
                  70066980    00000016                                                         : i2c_v1_lld.obj (.text.I2CControllerStart)
                  70066996    0000000a     --HOLE-- [fill = 0]
                  700669a0    00000016                                                         : i2c_v1_lld.obj (.text.I2CControllerStop)
                  700669b6    0000000a     --HOLE-- [fill = 0]
                  700669c0    00000016                                                         : ipc_notify_v1.obj (.text.IpcNotify_sendSync)
                  700669d6    0000000a     --HOLE-- [fill = 0]
                  700669e0    00000016     freertos.am263px.r5f.ti-arm-clang.debug.lib : TimerP_rti_priv.obj (.text.TimerP_isOverflowedPriv)
                  700669f6    0000000a     --HOLE-- [fill = 0]
                  70066a00    00000016                                                 : TimerP_rti_priv.obj (.text.TimerP_startPriv)
                  70066a16    0000000a     --HOLE-- [fill = 0]
                  70066a20    00000016                                                 : TimerP_rti_priv.obj (.text.TimerP_stopPriv)
                  70066a36    0000000a     --HOLE-- [fill = 0]
                  70066a40    00000016     drivers.am263px.r5f.ti-arm-clang.freertos.debug.lib : uart_v0_lld.obj (.text.UART_divideRoundCloset)
                  70066a56    0000000a     --HOLE-- [fill = 0]
                  70066a60    00000016                                                         : uart_v0_lld.obj (.text.UART_regConfModeRestore)
                  70066a76    0000000a     --HOLE-- [fill = 0]
                  70066a80    00000014     freertos.am263px.r5f.ti-arm-clang.debug.lib : DebugP_uartLogWriter.obj (.text.DebugP_uartSetDrvIndex)
                  70066a94    0000000c     --HOLE-- [fill = 0]
                  70066aa0    00000014     drivers.am263px.r5f.ti-arm-clang.freertos.debug.lib : edma.obj (.text.HW_WR_REG16_RAW)
                  70066ab4    0000000c     --HOLE-- [fill = 0]
                  70066ac0    00000014                                                         : i2c_v1_lld.obj (.text.I2CControllerIntClearEx)
                  70066ad4    0000000c     --HOLE-- [fill = 0]
                  70066ae0    00000014                                                         : i2c_v1_lld.obj (.text.I2CControllerTargetAddrSet)
                  70066af4    0000000c     --HOLE-- [fill = 0]
                  70066b00    00000014                                                         : i2c_v1_lld.obj (.text.I2CIntVectGet)
                  70066b14    0000000c     --HOLE-- [fill = 0]
                  70066b20    00000014                                                         : i2c_v1_lld.obj (.text.I2COwnAddressSet)
                  70066b34    0000000c     --HOLE-- [fill = 0]
                  70066b40    00000014                                                         : i2c_v1_lld.obj (.text.I2CSetDataCount)
                  70066b54    0000000c     --HOLE-- [fill = 0]
                  70066b60    00000014                                                         : ipc_notify_v1.obj (.text.IpcNotify_mailboxClearPendingIntr)
                  70066b74    0000000c     --HOLE-- [fill = 0]
                  70066b80    00000014                                                         : soc_rcm.obj (.text.SOC_rcmGetModuleClkDivFromRegVal)
                  70066b94    0000000c     --HOLE-- [fill = 0]
                  70066ba0    00000014     freertos.am263px.r5f.ti-arm-clang.debug.lib : TimerP_rti_priv.obj (.text.TimerP_clearOverflowIntPriv)
                  70066bb4    0000000c     --HOLE-- [fill = 0]
                  70066bc0    00000014                                                 : TimerP_rti_freertos.obj (.text.TimerP_setup)
                  70066bd4    0000000c     --HOLE-- [fill = 0]
                  70066be0    00000014     main.o (.text.build_and_send_udp_packet)
                  70066bf4    0000000c     --HOLE-- [fill = 0]
                  70066c00    00000014     ti_dpl_config.o (.text.putchar_)
                  70066c14    0000000c     --HOLE-- [fill = 0]
                  70066c20    00000014     freertos.am263px.r5f.ti-arm-clang.debug.lib : tasks.obj (.text.xTaskGetCurrentTaskHandle)
                  70066c34    0000000c     --HOLE-- [fill = 0]
                  70066c40    00000012     drivers.am263px.r5f.ti-arm-clang.freertos.debug.lib : i2c_v1_lld.obj (.text.I2CControllerDataGet)
                  70066c52    0000000e     --HOLE-- [fill = 0]
                  70066c60    00000012     ti_pinmux_config.o (.text.Pinmux_init)
                  70066c72    0000000e     --HOLE-- [fill = 0]
                  70066c80    00000012     freertos.am263px.r5f.ti-arm-clang.debug.lib : port.obj (.text.uiPortGetRunTimeCounterValue)
                  70066c92    0000000e     --HOLE-- [fill = 0]
                  70066ca0    00000010     drivers.am263px.r5f.ti-arm-clang.freertos.debug.lib : pinmux.obj (.text.CSL_REG32_WR_RAW)
                  70066cb0    00000010                                                         : soc.obj (.text.CSL_REG32_WR_RAW)
                  70066cc0    00000010     freertos.am263px.r5f.ti-arm-clang.debug.lib : ClockP_freertos_r5.obj (.text.ClockP_getTimerCount)
                  70066cd0    00000010                                                 : ClockP_freertos.obj (.text.ClockP_sleepTicks)
                  70066ce0    00000010                                                 : ClockP_freertos_r5.obj (.text.ClockP_timerClearOverflowInt)
                  70066cf0    00000010     drivers.am263px.r5f.ti-arm-clang.freertos.debug.lib : edma.obj (.text.HW_RD_REG32_RAW)
                  70066d00    00000010                                                         : uart_v0_lld.obj (.text.HW_RD_REG32_RAW)
                  70066d10    00000010                                                         : edma.obj (.text.HW_WR_REG32_RAW)
                  70066d20    00000010                                                         : uart_v0_lld.obj (.text.HW_WR_REG32_RAW)
                  70066d30    00000010                                                         : ipc_notify_v1.obj (.text.IpcNotify_mailboxGetPendingIntr)
                  70066d40    00000010     freertos.am263px.r5f.ti-arm-clang.debug.lib : TimerP_rti_freertos.obj (.text.TimerP_Params_init)
                  70066d50    00000010                                                 : TimerP_rti_freertos.obj (.text.TimerP_clearOverflowInt)
                  70066d60    00000010                                                 : TimerP_rti_freertos.obj (.text.TimerP_getCount)
                  70066d70    00000010                                                 : TimerP_rti_freertos.obj (.text.TimerP_getReloadCount)
                  70066d80    00000010                                                 : TimerP_rti_freertos.obj (.text.TimerP_isOverflowed)
                  70066d90    00000010                                                 : TimerP_rti_freertos.obj (.text.TimerP_start)
                  70066da0    00000010     libclang_rt.builtins.a : aeabi_memset.S.obj (.text.__aeabi_memset)
                  70066db0    00000010     freertos.am263px.r5f.ti-arm-clang.debug.lib : printf.obj (.text._out_null)
                  70066dc0    00000010                                                 : tasks.obj (.text.vTaskSuspendAll)
                  70066dd0    0000000e                                                 : list.obj (.text.vListInitialiseItem)
                  70066dde    00000002     --HOLE-- [fill = 0]
                  70066de0    0000000e                                                 : tasks.obj (.text.vTaskMissedYield)
                  70066dee    00000002     --HOLE-- [fill = 0]
                  70066df0    0000000c     ti_drivers_open_close.o (.text.Drivers_open)
                  70066dfc    00000004     --HOLE-- [fill = 0]
                  70066e00    0000000c     ti_power_clock_config.o (.text.PowerClock_init)
                  70066e0c    00000004     --HOLE-- [fill = 0]
                  70066e10    0000000c     freertos.am263px.r5f.ti-arm-clang.debug.lib : tasks.obj (.text.uxTaskGetNumberOfTasks)
                  70066e1c    00000004     --HOLE-- [fill = 0]
                  70066e20    0000000a                                                 : HwiP_armv7r_vim.obj (.text.Hwip_dataAndInstructionBarrier)
                  70066e2a    00000006     --HOLE-- [fill = 0]
                  70066e30    0000000a     drivers.am263px.r5f.ti-arm-clang.freertos.debug.lib : ipc_notify_v1.obj (.text.IpcNotify_dataAndInstructionBarrier)
                  70066e3a    00000006     --HOLE-- [fill = 0]
                  70066e40    0000000a                                                         : soc_rcm.obj (.text.SOC_rcmGetBaseAddressMSSRCM)
                  70066e4a    00000006     --HOLE-- [fill = 0]
                  70066e50    0000000a                                                         : uart_dma_edma.obj (.text.UART_edmaDoNothing)
                  70066e5a    00000006     --HOLE-- [fill = 0]
                  70066e60    0000000a     gateway_shared.o (.text.gateway_memory_barrier)
                  70066e6a    00000006     --HOLE-- [fill = 0]
                  70066e70    0000000a     freertos.am263px.r5f.ti-arm-clang.debug.lib : port.obj (.text.prvTaskExitError)
                  70066e7a    00000006     --HOLE-- [fill = 0]
                  70066e80    0000000a                                                 : port.obj (.text.vApplicationIdleHook)
                  70066e8a    00000006     --HOLE-- [fill = 0]
                  70066e90    00000008     ti_drivers_config.o (.text.Drivers_uartInit)
                  70066e98    00000008     --HOLE-- [fill = 0]
                  70066ea0    00000008     drivers.am263px.r5f.ti-arm-clang.freertos.debug.lib : soc_rcm.obj (.text.SOC_rcmGetBaseAddressMSSCTRL)
                  70066ea8    00000008     --HOLE-- [fill = 0]
                  70066eb0    00000008                                                         : soc_rcm.obj (.text.SOC_rcmGetBaseAddressTOPRCM)
                  70066eb8    00000008     --HOLE-- [fill = 0]
                  70066ec0    00000004     freertos.am263px.r5f.ti-arm-clang.debug.lib : TaskP_freertos.obj (.text.TaskP_yield)
                  70066ec4    0000000c     --HOLE-- [fill = 0]
                  70066ed0    00000002     ti_board_config.o (.text.Board_init)
                  70066ed2    0000000e     --HOLE-- [fill = 0]
                  70066ee0    00000002     drivers.am263px.r5f.ti-arm-clang.freertos.debug.lib : ipc_notify_v1_cfg.obj (.text.IpcNotify_wait)
                  70066ee2    0000000e     --HOLE-- [fill = 0]
                  70066ef0    00000002     freertos.am263px.r5f.ti-arm-clang.debug.lib : port.obj (.text.vPortConfigTimerForRunTimeStats)
                  70066ef2    0000000e     --HOLE-- [fill = 0]
                  70066f00    00000002                                                 : port.obj (.text.vPortValidateInterruptPriority)
                  70066f02    0000000e     --HOLE-- [fill = 0]

.rodata    0    70066f10    00001f78     
                  70066f10    00000084     ti_dpl_config.o (.rodata.cfg)
                  70066f94    00000082     freertos.am263px.r5f.ti-arm-clang.debug.lib : tasks.obj (.rodata.str1.16487631963213850555.1)
                  70067016    0000006b                                                 : queue.obj (.rodata.str1.18282543359674176480.1)
                  70067081    00000065                                                 : queue.obj (.rodata.str1.9511296674868437406.1)
                  700670e6    00000062                                                 : queue.obj (.rodata.str1.18359938312540145380.1)
                  70067148    0000005f                                                 : queue.obj (.rodata.str1.4808098962482247512.1)
                  700671a7    0000005d                                                 : queue.obj (.rodata.str1.18236504432714223226.1)
                  70067204    0000005c                                                 : ClockP_freertos_r5.obj (.rodata.str1.17223520836534051513.1)
                  70067260    00000059                                                 : queue.obj (.rodata.str1.2939708859591819309.1)
                  700672b9    00000006     drivers.am263px.r5f.ti-arm-clang.freertos.debug.lib : soc_rcm.obj (.rodata.str1.12246138248821672736.1)
                  700672bf    00000001     --HOLE-- [fill = 0]
                  700672c0    00000050     freertos.am263px.r5f.ti-arm-clang.debug.lib : printf.obj (.rodata._ftoa.pow10)
                  70067310    0000004e                                                 : tasks.obj (.rodata.str1.13816019951245278340.1)
                  7006735e    0000004a                                                 : tasks.obj (.rodata.str1.10023831899268848383.1)
                  700673a8    00000048     drivers.am263px.r5f.ti-arm-clang.freertos.debug.lib : soc_rcm.obj (.rodata.gADPLLJConfigTbl)
                  700673f0    00000046     main.o (.rodata.str1.17045314124001216156.1)
                  70067436    00000042     gateway_shared.o (.rodata.str1.5327546541240122901.1)
                  70067478    00000041     main.o (.rodata.str1.10224226614597680209.1)
                  700674b9    00000041     main.o (.rodata.str1.13030671760666898970.1)
                  700674fa    00000002     drivers.am263px.r5f.ti-arm-clang.freertos.debug.lib : soc_rcm.obj (.rodata.gCR5ClkSrcInfoMap)
                  700674fc    00000040     main.o (.rodata..L__const.ipc_process_task.test_pattern)
                  7006753c    00000040     drivers.am263px.r5f.ti-arm-clang.freertos.debug.lib : ipc_notify_v1.obj (.rodata.str1.10118846006578224169.1)
                  7006757c    0000003f     freertos.am263px.r5f.ti-arm-clang.debug.lib : port.obj (.rodata.str1.2008661137458711816.1)
                  700675bb    0000003f     main.o (.rodata.str1.6554448696319176064.1)
                  700675fa    0000003e     freertos.am263px.r5f.ti-arm-clang.debug.lib : tasks.obj (.rodata.str1.14396925725003412323.1)
                  70067638    0000003e     main.o (.rodata.str1.5043408953494467246.1)
                  70067676    0000003d     freertos.am263px.r5f.ti-arm-clang.debug.lib : TimerP_rti_priv.obj (.rodata.str1.11388379688747141303.1)
                  700676b3    0000003c     main.o (.rodata.str1.403738606202455663.1)
                  700676ef    0000003c     main.o (.rodata.str1.6891813955777630061.1)
                  7006772b    00000038     ti_drivers_open_close.o (.rodata.str1.871795152488895636.1)
                  70067763    00000037     ti_board_open_close.o (.rodata.str1.12245025114167949655.1)
                  7006779a    00000037     main.o (.rodata.str1.39260288392874984.1)
                  700677d1    00000037     main.o (.rodata.str1.8320541211001259012.1)
                  70067808    00000036     main.o (.rodata.str1.11321157723316767883.1)
                  7006783e    00000036     gateway_shared.o (.rodata.str1.15289121751270190569.1)
                  70067874    00000035     main.o (.rodata.str1.10313062130652730376.1)
                  700678a9    00000035     ti_drivers_open_close.o (.rodata.str1.7750254725308216577.1)
                  700678de    00000034     main.o (.rodata.str1.15996357275703397564.1)
                  70067912    00000034     main.o (.rodata.str1.8076846746581808073.1)
                  70067946    00000033     log_reader_task.o (.rodata.str1.14644858341853885844.1)
                  70067979    00000032     gateway_shared.o (.rodata.str1.940762523524635611.1)
                  700679ab    00000032     gateway_shared.o (.rodata.str1.9859227269409816370.1)
                  700679dd    00000031     freertos.am263px.r5f.ti-arm-clang.debug.lib : timers.obj (.rodata.str1.12905175610507169212.1)
                  70067a0e    00000031     log_reader_task.o (.rodata.str1.3669068854808413152.1)
                  70067a3f    00000031     freertos.am263px.r5f.ti-arm-clang.debug.lib : tasks.obj (.rodata.str1.455414032244290138.1)
                  70067a70    00000030                                                 : queue.obj (.rodata.str1.3762774476990514498.1)
                  70067aa0    0000002f     main.o (.rodata.str1.13782249893155712474.1)
                  70067acf    0000002f     drivers.am263px.r5f.ti-arm-clang.freertos.debug.lib : ipc_notify_v1.obj (.rodata.str1.9418228565027791152.1)
                  70067afe    0000002e     freertos.am263px.r5f.ti-arm-clang.debug.lib : queue.obj (.rodata.str1.13478403849926902207.1)
                  70067b2c    0000002e     main.o (.rodata.str1.16631870348416990953.1)
                  70067b5a    0000002e     freertos.am263px.r5f.ti-arm-clang.debug.lib : queue.obj (.rodata.str1.6603158521343292237.1)
                  70067b88    0000002d     main.o (.rodata.str1.10635229749459437609.1)
                  70067bb5    0000002d     main.o (.rodata.str1.13288086030101331538.1)
                  70067be2    00000002     --HOLE-- [fill = 0]
                  70067be4    0000002c     drivers.am263px.r5f.ti-arm-clang.freertos.debug.lib : i2c_v1.obj (.rodata.I2C_defaultTransaction)
                  70067c10    0000002b     main.o (.rodata.str1.9059077390166914652.1)
                  70067c3b    0000002a     freertos.am263px.r5f.ti-arm-clang.debug.lib : DebugP_log.obj (.rodata.str1.227947788441500939.1)
                  70067c65    0000002a     main.o (.rodata.str1.8096991282711418442.1)
                  70067c8f    00000029     freertos.am263px.r5f.ti-arm-clang.debug.lib : tasks.obj (.rodata.str1.13477346269686034323.1)
                  70067cb8    00000029     main.o (.rodata.str1.14079361385603432444.1)
                  70067ce1    00000029     main.o (.rodata.str1.14402440632258215044.1)
                  70067d0a    00000029     main.o (.rodata.str1.17376258722486336754.1)
                  70067d33    00000029     main.o (.rodata.str1.2563708670032483588.1)
                  70067d5c    00000028     freertos.am263px.r5f.ti-arm-clang.debug.lib : tasks.obj (.rodata.str1.14690029319882600548.1)
                  70067d84    00000028     main.o (.rodata.str1.18227636981041470289.1)
                  70067dac    00000028     gateway_shared.o (.rodata.str1.6121471336334202706.1)
                  70067dd4    00000027     freertos.am263px.r5f.ti-arm-clang.debug.lib : tasks.obj (.rodata.str1.12993397357195243110.1)
                  70067dfb    00000027                                                 : tasks.obj (.rodata.str1.15517475749724807947.1)
                  70067e22    00000027                                                 : queue.obj (.rodata.str1.1958022410542202588.1)
                  70067e49    00000027                                                 : tasks.obj (.rodata.str1.2823620137245587142.1)
                  70067e70    00000027                                                 : ClockP_freertos_r5.obj (.rodata.str1.4964156252153506440.1)
                  70067e97    00000027                                                 : TimerP_rti_priv.obj (.rodata.str1.7297095892955669843.1)
                  70067ebe    00000027     main.o (.rodata.str1.7996925722583989644.1)
                  70067ee5    00000026     gateway_shared.o (.rodata.str1.10148320092653071976.1)
                  70067f0b    00000026     freertos.am263px.r5f.ti-arm-clang.debug.lib : tasks.obj (.rodata.str1.9328102173130631220.1)
                  70067f31    00000025                                                 : tasks.obj (.rodata.str1.1175900692685457355.1)
                  70067f56    00000025     main.o (.rodata.str1.12180500075719773345.1)
                  70067f7b    00000025     main.o (.rodata.str1.14112174005742061988.1)
                  70067fa0    00000025     freertos.am263px.r5f.ti-arm-clang.debug.lib : queue.obj (.rodata.str1.8056268586134868364.1)
                  70067fc5    00000025     main.o (.rodata.str1.8108965883388295311.1)
                  70067fea    00000024     freertos.am263px.r5f.ti-arm-clang.debug.lib : tasks.obj (.rodata.str1.16123424699167936419.1)
                  7006800e    00000024     main.o (.rodata.str1.17100691992556644108.1)
                  70068032    00000024     main.o (.rodata.str1.2763581881760962609.1)
                  70068056    00000024     freertos.am263px.r5f.ti-arm-clang.debug.lib : tasks.obj (.rodata.str1.7264671426540837297.1)
                  7006807a    00000023     main.o (.rodata.str1.14466178792657420020.1)
                  7006809d    00000023     main.o (.rodata.str1.16265332423659789559.1)
                  700680c0    00000023     drivers.am263px.r5f.ti-arm-clang.freertos.debug.lib : soc_rcm.obj (.rodata.str1.2078190104202520215.1)
                  700680e3    00000023     main.o (.rodata.str1.3530083166107438000.1)
                  70068106    00000023     freertos.am263px.r5f.ti-arm-clang.debug.lib : ClockP_freertos_r5.obj (.rodata.str1.5485111591584040388.1)
                  70068129    00000022     drivers.am263px.r5f.ti-arm-clang.freertos.debug.lib : edma.obj (.rodata.str1.12976018205622752890.1)
                  7006814b    00000022     freertos.am263px.r5f.ti-arm-clang.debug.lib : tasks.obj (.rodata.str1.14649982755037496312.1)
                  7006816d    00000022                                                 : tasks.obj (.rodata.str1.16921125101802676652.1)
                  7006818f    00000022                                                 : tasks.obj (.rodata.str1.4011527817998493590.1)
                  700681b1    00000022                                                 : tasks.obj (.rodata.str1.8028392704665665311.1)
                  700681d3    00000021                                                 : ClockP_freertos_r5.obj (.rodata.str1.7035350789661265746.1)
                  700681f4    00000021                                                 : tasks.obj (.rodata.str1.7822570222060580035.1)
                  70068215    00000020     drivers.am263px.r5f.ti-arm-clang.freertos.debug.lib : uart_v0.obj (.rodata.str1.16594507886308206351.1)
                  70068235    00000020                                                         : ipc_notify_v1.obj (.rodata.str1.2046905611612007019.1)
                  70068255    00000020     freertos.am263px.r5f.ti-arm-clang.debug.lib : tasks.obj (.rodata.str1.2251723265452542394.1)
                  70068275    0000001f     main.o (.rodata.str1.1311392489248731986.1)
                  70068294    0000001f     freertos.am263px.r5f.ti-arm-clang.debug.lib : ClockP_freertos_r5.obj (.rodata.str1.17653911837062842281.1)
                  700682b3    0000001f                                                 : tasks.obj (.rodata.str1.8086631624469926375.1)
                  700682d2    0000001e     drivers.am263px.r5f.ti-arm-clang.freertos.debug.lib : ipc_notify_v1.obj (.rodata.str1.16593710740832512674.1)
                  700682f0    0000001e     freertos.am263px.r5f.ti-arm-clang.debug.lib : tasks.obj (.rodata.str1.17790062339596940786.1)
                  7006830e    0000001e     main.o (.rodata.str1.18092426736022315238.1)
                  7006832c    0000001e     freertos.am263px.r5f.ti-arm-clang.debug.lib : tasks.obj (.rodata.str1.6214573295259559232.1)
                  7006834a    0000001e     main.o (.rodata.str1.7784929982665794503.1)
                  70068368    0000001e     freertos.am263px.r5f.ti-arm-clang.debug.lib : port.obj (.rodata.str1.8643037410225090959.1)
                  70068386    0000001e     drivers.am263px.r5f.ti-arm-clang.freertos.debug.lib : ipc_notify_v1.obj (.rodata.str1.9050127465416171240.1)
                  700683a4    0000001e     freertos.am263px.r5f.ti-arm-clang.debug.lib : tasks.obj (.rodata.str1.9827387717067752852.1)
                  700683c2    0000001d                                                 : TimerP_rti_priv.obj (.rodata.str1.1727973701797049581.1)
                  700683df    0000001d                                                 : TimerP_rti_priv.obj (.rodata.str1.4425773406285945039.1)
                  700683fc    0000001d     drivers.am263px.r5f.ti-arm-clang.freertos.debug.lib : uart_v0.obj (.rodata.str1.4697665093340446018.1)
                  70068419    0000001c     freertos.am263px.r5f.ti-arm-clang.debug.lib : ClockP_freertos_r5.obj (.rodata.str1.6936306138937714152.1)
                  70068435    0000001b                                                 : tasks.obj (.rodata.str1.12947348120595969549.1)
                  70068450    0000001b                                                 : timers.obj (.rodata.str1.16001437261817787019.1)
                  7006846b    0000001b     drivers.am263px.r5f.ti-arm-clang.freertos.debug.lib : edma.obj (.rodata.str1.16672221102796607080.1)
                  70068486    0000001b     ti_drivers_config.o (.rodata.str1.7767457247551078139.1)
                  700684a1    0000001a     main.o (.rodata.str1.11702106008850790973.1)
                  700684bb    0000001a     freertos.am263px.r5f.ti-arm-clang.debug.lib : queue.obj (.rodata.str1.11765322630372331988.1)
                  700684d5    0000001a     main.o (.rodata.str1.11870794119293528247.1)
                  700684ef    0000001a     freertos.am263px.r5f.ti-arm-clang.debug.lib : queue.obj (.rodata.str1.12125964304638706974.1)
                  70068509    0000001a     main.o (.rodata.str1.16302215771116645891.1)
                  70068523    0000001a     drivers.am263px.r5f.ti-arm-clang.freertos.debug.lib : soc_rcm.obj (.rodata.str1.16907879152045164286.1)
                  7006853d    0000001a     freertos.am263px.r5f.ti-arm-clang.debug.lib : tasks.obj (.rodata.str1.18394102994193996062.1)
                  70068557    0000001a                                                 : tasks.obj (.rodata.str1.1908087408565297158.1)
                  70068571    0000001a     drivers.am263px.r5f.ti-arm-clang.freertos.debug.lib : i2c_v1.obj (.rodata.str1.2708024660006642838.1)
                  7006858b    0000001a     freertos.am263px.r5f.ti-arm-clang.debug.lib : tasks.obj (.rodata.str1.64558417559699519.1)
                  700685a5    00000019     drivers.am263px.r5f.ti-arm-clang.freertos.debug.lib : ipc_notify_v1.obj (.rodata.str1.12253177398743541182.1)
                  700685be    00000019     freertos.am263px.r5f.ti-arm-clang.debug.lib : timers.obj (.rodata.str1.15628002448382055558.1)
                  700685d7    00000019                                                 : queue.obj (.rodata.str1.2068208149952083127.1)
                  700685f0    00000019                                                 : tasks.obj (.rodata.str1.244605201944591920.1)
                  70068609    00000019                                                 : queue.obj (.rodata.str1.3468573994310079257.1)
                  70068622    00000019                                                 : TimerP_rti_priv.obj (.rodata.str1.5494506574634759136.1)
                  7006863b    00000001     --HOLE-- [fill = 0]
                  7006863c    00000018     drivers.am263px.r5f.ti-arm-clang.freertos.debug.lib : i2c_v1_lld.obj (.rodata.I2C_lld_defaultMessage)
                  70068654    00000018                                                         : soc_rcm.obj (.rodata.gControlssPllClkSrcValMap)
                  7006866c    00000018                                                         : soc_rcm.obj (.rodata.gCptsClkSrcValMap)
                  70068684    00000018                                                         : soc_rcm.obj (.rodata.gI2cClkSrcValMap)
                  7006869c    00000018                                                         : soc_rcm.obj (.rodata.gIcssmUartClkSrcValMap)
                  700686b4    00000018                                                         : soc_rcm.obj (.rodata.gLinUartClkSrcValMap)
                  700686cc    00000018                                                         : soc_rcm.obj (.rodata.gMcSpiClkSrcValMap)
                  700686e4    00000018                                                         : soc_rcm.obj (.rodata.gMcanClkSrcValMap)
                  700686fc    00000018                                                         : soc_rcm.obj (.rodata.gMmcClkSrcValMap)
                  70068714    00000018                                                         : soc_rcm.obj (.rodata.gOspiClkSrcValMap)
                  7006872c    00000018                                                         : soc_rcm.obj (.rodata.gPeripheralClkSrcInfoMap)
                  70068744    00000018                                                         : soc_rcm.obj (.rodata.gRtiClkSrcValMap)
                  7006875c    00000018                                                         : soc_rcm.obj (.rodata.gWdtClkSrcValMap)
                  70068774    00000018     freertos.am263px.r5f.ti-arm-clang.debug.lib : tasks.obj (.rodata.str1.1180350764332954913.1)
                  7006878c    00000018                                                 : queue.obj (.rodata.str1.1299805873427833789.1)
                  700687a4    00000018                                                 : tasks.obj (.rodata.str1.13344916649340266805.1)
                  700687bc    00000018     drivers.am263px.r5f.ti-arm-clang.freertos.debug.lib : i2c_v1.obj (.rodata.str1.16369086400766814308.1)
                  700687d4    00000018                                                         : uart_v0.obj (.rodata.str1.16507871919775359273.1)
                  700687ec    00000018     ti_drivers_config.o (.rodata.str1.2211846465855763212.1)
                  70068804    00000018     freertos.am263px.r5f.ti-arm-clang.debug.lib : tasks.obj (.rodata.str1.2834791214610268086.1)
                  7006881c    00000018     drivers.am263px.r5f.ti-arm-clang.freertos.debug.lib : i2c_v1.obj (.rodata.str1.4713777613235169076.1)
                  70068834    00000018     freertos.am263px.r5f.ti-arm-clang.debug.lib : queue.obj (.rodata.str1.4783428148027574403.1)
                  7006884c    00000018                                                 : tasks.obj (.rodata.str1.4810192888527840656.1)
                  70068864    00000018     drivers.am263px.r5f.ti-arm-clang.freertos.debug.lib : i2c_v1.obj (.rodata.str1.706085228479171695.1)
                  7006887c    00000017                                                         : soc_rcm.obj (.rodata.str1.1263028196474875090.1)
                  70068893    00000017     freertos.am263px.r5f.ti-arm-clang.debug.lib : timers.obj (.rodata.str1.8630227424645744516.1)
                  700688aa    00000017                                                 : queue.obj (.rodata.str1.9461746748575326763.1)
                  700688c1    00000016                                                 : queue.obj (.rodata.str1.11977895447724525666.1)
                  700688d7    00000016                                                 : tasks.obj (.rodata.str1.12915494234774218437.1)
                  700688ed    00000016     drivers.am263px.r5f.ti-arm-clang.freertos.debug.lib : soc_rcm.obj (.rodata.str1.15837709475095375462.1)
                  70068903    00000016                                                         : soc_rcm.obj (.rodata.str1.18101715471844446405.1)
                  70068919    00000016     freertos.am263px.r5f.ti-arm-clang.debug.lib : timers.obj (.rodata.str1.1863766670952869147.1)
                  7006892f    00000016     drivers.am263px.r5f.ti-arm-clang.freertos.debug.lib : soc_rcm.obj (.rodata.str1.503491203257075565.1)
                  70068945    00000016     freertos.am263px.r5f.ti-arm-clang.debug.lib : tasks.obj (.rodata.str1.8073734311353135185.1)
                  7006895b    00000015                                                 : tasks.obj (.rodata.str1.1179690219950103224.1)
                  70068970    00000015                                                 : DebugP_shmLogReader_freertos.obj (.rodata.str1.14160593345447063684.1)
                  70068985    00000015     drivers.am263px.r5f.ti-arm-clang.freertos.debug.lib : ipc_notify_v1.obj (.rodata.str1.2749849238461102323.1)
                  7006899a    00000015     freertos.am263px.r5f.ti-arm-clang.debug.lib : tasks.obj (.rodata.str1.3834493932173273458.1)
                  700689af    00000015                                                 : queue.obj (.rodata.str1.733373753318541697.1)
                  700689c4    00000015     drivers.am263px.r5f.ti-arm-clang.freertos.debug.lib : edma.obj (.rodata.str1.9771253703579349310.1)
                  700689d9    00000014     freertos.am263px.r5f.ti-arm-clang.debug.lib : timers.obj (.rodata.str1.12862578983123979947.1)
                  700689ed    00000014                                                 : queue.obj (.rodata.str1.13913286983238060231.1)
                  70068a01    00000014     drivers.am263px.r5f.ti-arm-clang.freertos.debug.lib : edma.obj (.rodata.str1.14977302951450442404.1)
                  70068a15    00000014     freertos.am263px.r5f.ti-arm-clang.debug.lib : tasks.obj (.rodata.str1.15301157131892573123.1)
                  70068a29    00000014                                                 : tasks.obj (.rodata.str1.1590280515097235757.1)
                  70068a3d    00000014     drivers.am263px.r5f.ti-arm-clang.freertos.debug.lib : edma.obj (.rodata.str1.16586217098785273673.1)
                  70068a51    00000014                                                         : ipc_notify_v1.obj (.rodata.str1.17722115868992979254.1)
                  70068a65    00000014                                                         : ipc_notify_v1.obj (.rodata.str1.5235938544388580736.1)
                  70068a79    00000014     freertos.am263px.r5f.ti-arm-clang.debug.lib : queue.obj (.rodata.str1.5651723813464298674.1)
                  70068a8d    00000014     drivers.am263px.r5f.ti-arm-clang.freertos.debug.lib : edma.obj (.rodata.str1.6479261940699871955.1)
                  70068aa1    00000014     freertos.am263px.r5f.ti-arm-clang.debug.lib : queue.obj (.rodata.str1.7843261785982681291.1)
                  70068ab5    00000014                                                 : queue.obj (.rodata.str1.9215182567506272009.1)
                  70068ac9    00000013                                                 : tasks.obj (.rodata.str1.11231016557412941470.1)
                  70068adc    00000013                                                 : tasks.obj (.rodata.str1.12750191009304684199.1)
                  70068aef    00000013                                                 : tasks.obj (.rodata.str1.13310467261413824673.1)
                  70068b02    00000013                                                 : queue.obj (.rodata.str1.14947700358493181700.1)
                  70068b15    00000013     drivers.am263px.r5f.ti-arm-clang.freertos.debug.lib : soc_rcm.obj (.rodata.str1.1513614241493853460.1)
                  70068b28    00000013     freertos.am263px.r5f.ti-arm-clang.debug.lib : queue.obj (.rodata.str1.7393829526960650191.1)
                  70068b3b    00000013     drivers.am263px.r5f.ti-arm-clang.freertos.debug.lib : uart_v0.obj (.rodata.str1.8511823138002593779.1)
                  70068b4e    00000012                                                         : uart_v0.obj (.rodata.str1.10085477686273322470.1)
                  70068b60    00000012     freertos.am263px.r5f.ti-arm-clang.debug.lib : tasks.obj (.rodata.str1.16715115271120123623.1)
                  70068b72    00000012     drivers.am263px.r5f.ti-arm-clang.freertos.debug.lib : uart_v0.obj (.rodata.str1.1906408950570946892.1)
                  70068b84    00000012                                                         : ipc_notify_v1.obj (.rodata.str1.4922609433019995091.1)
                  70068b96    00000012     freertos.am263px.r5f.ti-arm-clang.debug.lib : queue.obj (.rodata.str1.5113766004027316909.1)
                  70068ba8    00000012     drivers.am263px.r5f.ti-arm-clang.freertos.debug.lib : soc_rcm.obj (.rodata.str1.6089483996110695684.1)
                  70068bba    00000012     freertos.am263px.r5f.ti-arm-clang.debug.lib : queue.obj (.rodata.str1.6729734474146706965.1)
                  70068bcc    00000012     drivers.am263px.r5f.ti-arm-clang.freertos.debug.lib : edma.obj (.rodata.str1.8988798825313313125.1)
                  70068bde    00000011     freertos.am263px.r5f.ti-arm-clang.debug.lib : SemaphoreP_freertos.obj (.rodata.str1.11155737773773580205.1)
                  70068bef    00000011     drivers.am263px.r5f.ti-arm-clang.freertos.debug.lib : edma.obj (.rodata.str1.13359792024450833872.1)
                  70068c00    00000011                                                         : uart_v0.obj (.rodata.str1.18277465892467933209.1)
                  70068c11    00000011     ti_board_open_close.o (.rodata.str1.2235680336123228840.1)
                  70068c22    00000011     ti_drivers_open_close.o (.rodata.str1.6292539624901818759.1)
                  70068c33    00000011     freertos.am263px.r5f.ti-arm-clang.debug.lib : TimerP_rti_priv.obj (.rodata.str1.7786169893402823657.1)
                  70068c44    00000011     drivers.am263px.r5f.ti-arm-clang.freertos.debug.lib : ipc_notify_v1.obj (.rodata.str1.9036292169629118271.1)
                  70068c55    00000010                                                         : i2c_v1.obj (.rodata.str1.15304174031418066064.1)
                  70068c65    00000010     freertos.am263px.r5f.ti-arm-clang.debug.lib : tasks.obj (.rodata.str1.16641427445245502813.1)
                  70068c75    00000010     drivers.am263px.r5f.ti-arm-clang.freertos.debug.lib : edma.obj (.rodata.str1.16687974986316968853.1)
                  70068c85    00000010     ti_drivers_open_close.o (.rodata.str1.6437641722977580707.1)
                  70068c95    0000000f     drivers.am263px.r5f.ti-arm-clang.freertos.debug.lib : i2c_v1.obj (.rodata.str1.11436736645546584573.1)
                  70068ca4    0000000f                                                         : edma.obj (.rodata.str1.12381575634899622488.1)
                  70068cb3    0000000f                                                         : edma.obj (.rodata.str1.15707078201242323249.1)
                  70068cc2    0000000f                                                         : edma.obj (.rodata.str1.2781376525681532154.1)
                  70068cd1    0000000f                                                         : ipc_notify_v1.obj (.rodata.str1.4769539187903082080.1)
                  70068ce0    0000000f                                                         : edma.obj (.rodata.str1.4907917467944964367.1)
                  70068cef    0000000f     freertos.am263px.r5f.ti-arm-clang.debug.lib : tasks.obj (.rodata.str1.9703773919170427980.1)
                  70068cfe    0000000e     main.o (.rodata.str1.15159059442110792349.1)
                  70068d0c    0000000e     drivers.am263px.r5f.ti-arm-clang.freertos.debug.lib : edma.obj (.rodata.str1.1669868279207928169.1)
                  70068d1a    0000000e     freertos.am263px.r5f.ti-arm-clang.debug.lib : queue.obj (.rodata.str1.4870389810463987135.1)
                  70068d28    0000000e     drivers.am263px.r5f.ti-arm-clang.freertos.debug.lib : edma.obj (.rodata.str1.6128441279204879358.1)
                  70068d36    0000000e                                                         : edma.obj (.rodata.str1.6928588723460450634.1)
                  70068d44    0000000d                                                         : edma.obj (.rodata.str1.14657363906792235350.1)
                  70068d51    0000000d     freertos.am263px.r5f.ti-arm-clang.debug.lib : TimerP_rti_priv.obj (.rodata.str1.15140844044942405278.1)
                  70068d5e    0000000d                                                 : tasks.obj (.rodata.str1.17242638503507280240.1)
                  70068d6b    0000000d                                                 : queue.obj (.rodata.str1.3965108510571005880.1)
                  70068d78    0000000c                                                 : SemaphoreP_freertos.obj (.rodata.str1.12663718090588439116.1)
                  70068d84    0000000c                                                 : ClockP_freertos_r5.obj (.rodata.str1.163709248249584909.1)
                  70068d90    0000000c                                                 : tasks.obj (.rodata.str1.288740206031155615.1)
                  70068d9c    0000000c     ti_drivers_config.o (.rodata.str1.3145245972279493797.1)
                  70068da8    0000000c     drivers.am263px.r5f.ti-arm-clang.freertos.debug.lib : edma.obj (.rodata.str1.8587431144907355806.1)
                  70068db4    0000000b                                                         : uart_v0.obj (.rodata.str1.1151567497034493012.1)
                  70068dbf    0000000b     main.o (.rodata.str1.540816968228716433.1)
                  70068dca    0000000b     drivers.am263px.r5f.ti-arm-clang.freertos.debug.lib : uart_v0.obj (.rodata.str1.6746041542798830823.1)
                  70068dd5    0000000b     main.o (.rodata.str1.7702501944640899365.1)
                  70068de0    0000000b     freertos.am263px.r5f.ti-arm-clang.debug.lib : tasks.obj (.rodata.str1.9993771681305664476.1)
                  70068deb    0000000a     log_reader_task.o (.rodata.str1.11149295088596609019.1)
                  70068df5    0000000a     drivers.am263px.r5f.ti-arm-clang.freertos.debug.lib : i2c_v1.obj (.rodata.str1.3288561361854740495.1)
                  70068dff    0000000a                                                         : soc_rcm.obj (.rodata.str1.3349473071634452315.1)
                  70068e09    0000000a                                                         : uart_v0.obj (.rodata.str1.7892831408302009747.1)
                  70068e13    0000000a     main.o (.rodata.str1.8154729771448623357.1)
                  70068e1d    0000000a     drivers.am263px.r5f.ti-arm-clang.freertos.debug.lib : uart_v0.obj (.rodata.str1.8477608605346433529.1)
                  70068e27    0000000a                                                         : ipc_notify_v1.obj (.rodata.str1.8751964444192423158.1)
                  70068e31    00000009                                                         : i2c_v1.obj (.rodata.str1.6120977755438783109.1)
                  70068e3a    00000002     --HOLE-- [fill = 0]
                  70068e3c    00000008                                                         : soc_rcm.obj (.rodata.gXTALInfo)
                  70068e44    00000008     freertos.am263px.r5f.ti-arm-clang.debug.lib : timers.obj (.rodata.str1.6031452896567546882.1)
                  70068e4c    00000006     main.o (.rodata.str1.2846389346932560359.1)
                  70068e52    00000006     main.o (.rodata.str1.288608917962107522.1)
                  70068e58    00000005     freertos.am263px.r5f.ti-arm-clang.debug.lib : tasks.obj (.rodata.str1.13987792565849211752.1)
                  70068e5d    00000005                                                 : timers.obj (.rodata.str1.5484652960053921135.1)
                  70068e62    00000005     main.o (.rodata.str1.8309300403304547201.1)
                  70068e67    00000005     freertos.am263px.r5f.ti-arm-clang.debug.lib : printf.obj (.rodata.str1.8544352122861784523.1)
                  70068e6c    00000005                                                 : printf.obj (.rodata.str1.8812429412984920041.1)
                  70068e71    00000003     main.o (.rodata.str1.2123964117280943167.1)
                  70068e74    00000004     freertos.am263px.r5f.ti-arm-clang.debug.lib : CacheP_armv7r.obj (.rodata.gCacheL1dCacheLineSize)
                  70068e78    00000004                                                 : CacheP_armv7r.obj (.rodata.gCacheL1pCacheLineSize)
                  70068e7c    00000004                                                 : printf.obj (.rodata.str1.13278797451342649413.1)
                  70068e80    00000004                                                 : printf.obj (.rodata.str1.17155598869870286803.1)
                  70068e84    00000004                                                 : tasks.obj (.rodata.uxTopUsedPriority)

.text.hwi 
*          0    70068e90    00000f90     
                  70068e90    000006c0     freertos.am263px.r5f.ti-arm-clang.debug.lib : HwiP_armv7r_vim.obj (.text.hwi)
                  70069550    0000056a                                                 : HwiP_armv7r_handlers_freertos.obj (.text.hwi)
                  70069aba    00000002     --HOLE-- [fill = 0]
                  70069abc    000001ec                                                 : portASM.obj (.text.hwi)
                  70069ca8    00000104                                                 : HwiP_armv7r_handlers_freertos_asm.obj (.text.hwi)
                  70069dac    00000070                                                 : HwiP_armv7r_asm.obj (.text.hwi)
                  70069e1c    00000004     --HOLE-- [fill = 0]

.text.cache 
*          0    70069e20    000004a0     
                  70069e20    00000340     freertos.am263px.r5f.ti-arm-clang.debug.lib : CacheP_armv7r_asm.obj (.text.cache)
                  7006a160    00000158                                                 : CacheP_armv7r.obj (.text.cache)
                  7006a2b8    00000008     --HOLE-- [fill = 0]

.text.mpu 
*          0    7006a2c0    000003c0     
                  7006a2c0    00000340     freertos.am263px.r5f.ti-arm-clang.debug.lib : MpuP_armv7r.obj (.text.mpu)
                  7006a600    00000078                                                 : MpuP_armv7r_asm.obj (.text.mpu)
                  7006a678    00000008     --HOLE-- [fill = 0]

.text.boot 
*          0    7006a680    000001c0     
                  7006a680    00000144     freertos.am263px.r5f.ti-arm-clang.debug.lib : boot_armv7r_asm.obj (.text.boot)
                  7006a7c4    0000000c     --HOLE-- [fill = 0]
                  7006a7d0    00000024                                                 : DebugP_log.obj (.text.boot)
                  7006a7f4    0000000c     --HOLE-- [fill = 0]
                  7006a800    00000024                                                 : boot_armv7r.obj (.text.boot)
                  7006a824    0000000c     --HOLE-- [fill = 0]
                  7006a830    0000000c     ti_dpl_config.o (.text.boot)
                  7006a83c    00000004     --HOLE-- [fill = 0]

.text:abort 
*          0    7006a840    00000008     
                  7006a840    00000008     libc.a : exit.c.obj (.text:abort)

.data      0    7006a848    000005b0     
                  7006a848    000001b8     ti_pinmux_config.o (.data.gPinMuxMainDomainCfg)
                  7006aa00    00000100     drivers.am263px.r5f.ti-arm-clang.freertos.debug.lib : ipc_notify_v1_cfg.obj (.data.gIpcNotifyMailboxConfig)
                  7006ab00    0000005c                                                         : i2c_v1.obj (.data.gI2cDrvObj)
                  7006ab5c    0000005c                                                         : uart_v0.obj (.data.gUartDrvObj)
                  7006abb8    00000058     ti_drivers_open_close.o (.data.gUartParams)
                  7006ac10    00000030     ti_power_clock_config.o (.data.gSocModulesClockFrequency)
                  7006ac40    00000020     main.o (.data.g_test_data_from_core1_values)
                  7006ac60    00000018     ti_dpl_config.o (.data.gClockConfig)
                  7006ac78    00000018     ti_drivers_config.o (.data.gI2cHwAttrs)
                  7006ac90    00000018     drivers.am263px.r5f.ti-arm-clang.freertos.debug.lib : ipc_notify_v1_cfg.obj (.data.gIpcNotifyInterruptConfig_r5fss0_0)
                  7006aca8    00000014     main.o (.data.gStats)
                  7006acbc    00000010     board.am263px.r5f.ti-arm-clang.freertos.debug.lib : eeprom_cat24m.obj (.data.gEepromFxns_CAT24M)
                  7006accc    00000010     drivers.am263px.r5f.ti-arm-clang.freertos.debug.lib : ipc_notify_v1_cfg.obj (.data.gIpcNotifyCoreIntrBitPos)
                  7006acdc    00000010     ti_power_clock_config.o (.data.gSocModules)
                  7006acec    0000000c     freertos.am263px.r5f.ti-arm-clang.debug.lib : AddrTranslateP_32bit.obj (.data.gAddrTranslateConfig)
                  7006acf8    0000000c     board.am263px.r5f.ti-arm-clang.freertos.debug.lib : eeprom_cat24m.obj (.data.gEepromAttrs_CAT24M)
                  7006ad04    0000000c     ti_board_open_close.o (.data.gEepromConfig)
                  7006ad10    0000000c     ti_drivers_open_close.o (.data.gI2cParams)
                  7006ad1c    00000008     ti_board_open_close.o (.data.gEepromParams)
                  7006ad24    00000008     ti_drivers_config.o (.data.gI2cConfig)
                  7006ad2c    00000008     ti_drivers_config.o (.data.gUartAttrs)
                  7006ad34    00000008     ti_drivers_config.o (.data.gUartConfig)
                  7006ad3c    00000004     freertos.am263px.r5f.ti-arm-clang.debug.lib : DebugP_shmLogReader.obj (.data.DebugP_shmLogRead.coreIndex)
                  7006ad40    00000008                                                 : PmuP_armv7r.obj (.data.pmu)
                  7006ad48    00000008                                                 : TaskP_freertos.obj (.data.vApplicationLoadHook.lastUpdateTime)
                  7006ad50    00000004                                                 : tasks.obj (.data.FreeRTOS_errno)
                  7006ad54    00000004     libc.a : _lock.c.obj (.data._lock)
                  7006ad58    00000004            : _lock.c.obj (.data._unlock)
                  7006ad5c    00000004     freertos.am263px.r5f.ti-arm-clang.debug.lib : DebugP_freertos.obj (.data.gDebugLogIsInitDone)
                  7006ad60    00000004                                                 : DebugP_log.obj (.data.gDebugLogZone)
                  7006ad64    00000004                                                 : DebugP_uartLogWriter.obj (.data.gDebugP_uartDrvIndex)
                  7006ad68    00000004     ti_drivers_open_close.o (.data.gEdmaConfigNum)
                  7006ad6c    00000004     ti_board_open_close.o (.data.gEepromConfigNum)
                  7006ad70    00000004     ti_dpl_config.o (.data.gHwiConfig)
                  7006ad74    00000004     ti_drivers_config.o (.data.gI2cConfigNum)
                  7006ad78    00000004     drivers.am263px.r5f.ti-arm-clang.freertos.debug.lib : ipc_notify_v1_cfg.obj (.data.gIpcNotifyInterruptConfigNum_r5fss0_0)
                  7006ad7c    00000004     main.o (.data.gIpcTask)
                  7006ad80    00000004     log_reader_task.o (.data.gLogReaderTask)
                  7006ad84    00000004     main.o (.data.gMainTask)
                  7006ad88    00000004     ti_drivers_config.o (.data.gUartConfigNum)
                  7006ad8c    00000004     ti_drivers_open_close.o (.data.gUartDmaChConfig)
                  7006ad90    00000004     main.o (.data.gUdpRxTask)
                  7006ad94    00000004     main.o (.data.gUdpTxTask)
                  7006ad98    00000004     main.o (.data.g_ipc_callback_count)
                  7006ad9c    00000004     freertos.am263px.r5f.ti-arm-clang.debug.lib : timers.obj (.data.prvSampleTimeNow.xLastTime)
                  7006ada0    00000004                                                 : tasks.obj (.data.pxCurrentTCB)
                  7006ada4    00000004                                                 : port.obj (.data.ulPortInterruptNesting)
                  7006ada8    00000004                                                 : port.obj (.data.ulPortSchedularRunning)
                  7006adac    00000004                                                 : port.obj (.data.ulPortTaskHasFPUContext)
                  7006adb0    00000004                                                 : port.obj (.data.ulPortYieldRequired)
                  7006adb4    00000004                                                 : tasks.obj (.data.ulTaskSwitchedInTime)
                  7006adb8    00000004                                                 : tasks.obj (.data.ulTotalRunTime)
                  7006adbc    00000004                                                 : tasks.obj (.data.uxCurrentNumberOfTasks)
                  7006adc0    00000004                                                 : tasks.obj (.data.uxDeletedTasksWaitingCleanUp)
                  7006adc4    00000004                                                 : tasks.obj (.data.uxSchedulerSuspended)
                  7006adc8    00000004                                                 : tasks.obj (.data.uxTaskNumber)
                  7006adcc    00000004                                                 : tasks.obj (.data.uxTopReadyPriority)
                  7006add0    00000004                                                 : tasks.obj (.data.xNextTaskUnblockTime)
                  7006add4    00000004                                                 : tasks.obj (.data.xNumOfOverflows)
                  7006add8    00000004                                                 : tasks.obj (.data.xPendedTicks)
                  7006addc    00000004                                                 : tasks.obj (.data.xSchedulerRunning)
                  7006ade0    00000004                                                 : tasks.obj (.data.xTickCount)
                  7006ade4    00000004                                                 : timers.obj (.data.xTimerQueue)
                  7006ade8    00000004                                                 : timers.obj (.data.xTimerTaskHandle)
                  7006adec    00000004                                                 : tasks.obj (.data.xYieldPendings)
                  7006adf0    00000001     main.o (.data.g_test_data_from_core1_received)
                  7006adf1    00000001     drivers.am263px.r5f.ti-arm-clang.freertos.debug.lib : soc.obj (.data.isMapAvailable)
                  7006adf2    00000006     --HOLE-- [fill = 0]

.irqstack 
*          0    7006adf8    00000100     UNINITIALIZED
                  7006adf8    00000100     --HOLE--

.fiqstack 
*          0    7006aef8    00000100     UNINITIALIZED
                  7006aef8    00000100     --HOLE--

.svcstack 
*          0    7006aff8    00001000     UNINITIALIZED
                  7006aff8    00001000     --HOLE--

.abortstack 
*          0    7006bff8    00000100     UNINITIALIZED
                  7006bff8    00000100     --HOLE--

.undefinedstack 
*          0    7006c0f8    00000100     UNINITIALIZED
                  7006c0f8    00000100     --HOLE--

.init_array 
*          0    70040000    00000000     UNINITIALIZED

.bss.user_shared_mem 
*          0    701d0000    000001c0     NOLOAD SECTION
                  701d0000    000001c0     gateway_shared.o (.bss.user_shared_mem)

.bss.log_shared_mem 
*          0    701d4000    00002000     NOLOAD SECTION
                  701d4000    00002000     ti_dpl_config.o (.bss.log_shared_mem)

MODULE SUMMARY

       Module                                  code    ro data   rw data
       ------                                  ----    -------   -------
    .\
       main.o                                  1902    1864      19161  
       log_reader_task.o                       160     110       2204   
       gateway_shared.o                        812     298       448    
    +--+---------------------------------------+-------+---------+---------+
       Total:                                  2874    2272      21813  
                                                                        
    .\syscfg\
       ti_dpl_config.o                         114     132       8220   
       ti_drivers_config.o                     202     63        1080   
       ti_drivers_open_close.o                 508     142       116    
       ti_board_open_close.o                   276     72        392    
       ti_pinmux_config.o                      18      0         440    
       ti_power_clock_config.o                 180     0         64     
       ti_board_config.o                       2       0         0      
    +--+---------------------------------------+-------+---------+---------+
       Total:                                  1300    409       10312  
                                                                        
    C:/ti/mcu_plus_sdk_am263px_11_01_00_19/source/board/lib/board.am263px.r5f.ti-arm-clang.freertos.debug.lib
       eeprom_cat24m.obj                       754     0         28     
       eeprom.obj                              150     0         0      
    +--+---------------------------------------+-------+---------+---------+
       Total:                                  904     0         28     
                                                                        
    C:/ti/mcu_plus_sdk_am263px_11_01_00_19/source/drivers/lib/drivers.am263px.r5f.ti-arm-clang.freertos.debug.lib
       uart_v0_lld.obj                         7392    0         0      
       i2c_v1_lld.obj                          6674    24        0      
       edma.obj                                6076    320       0      
       soc_rcm.obj                             5436    573       0      
       ipc_notify_v1.obj                       3116    349       184    
       i2c_v1.obj                              3210    192       92     
       uart_v0.obj                             2730    199       92     
       uart_dma_edma.obj                       2316    0         0      
       soc.obj                                 1542    0         17     
       ipc_notify_v1_cfg.obj                   26      0         300    
       pinmux.obj                              210     0         0      
    +--+---------------------------------------+-------+---------+---------+
       Total:                                  38728   1657      685    
                                                                        
    C:/ti/mcu_plus_sdk_am263px_11_01_00_19/source/kernel/freertos/lib/freertos.am263px.r5f.ti-arm-clang.debug.lib
       tasks.obj                               7854    1563      812    
       printf.obj                              6936    98        0      
       port.obj                                600     93        5440   
       queue.obj                               4212    1196      256    
       DebugP_shmLogReader_freertos.obj        84      21        4252   
       HwiP_armv7r_vim.obj                     1738    0         2064   
       timers.obj                              1388    179       396    
       HwiP_armv7r_handlers_freertos.obj       1386    0         4      
       DebugP_shmLogReader.obj                 1028    0         152    
       TimerP_rti_priv.obj                     682     213       0      
       CacheP_armv7r_asm.obj                   832     0         0      
       MpuP_armv7r.obj                         832     0         0      
       ClockP_freertos_r5.obj                  424     270       0      
       SemaphoreP_freertos.obj                 498     29        80     
       TaskP_freertos.obj                      432     0         168    
       ClockP_freertos.obj                     474     0         24     
       portASM.obj                             492     0         0      
       CacheP_armv7r.obj                       344     8         0      
       boot_armv7r_asm.obj                     324     0         0      
       list.obj                                296     0         0      
       HwiP_armv7r_handlers_freertos_asm.obj   260     0         0      
       DebugP_log.obj                          204     42        4      
       DebugP_freertos.obj                     146     0         92     
       AddrTranslateP_32bit.obj                208     0         12     
       PmuP_armv7r.obj                         186     0         8      
       MpuP_armv7r_asm.obj                     120     0         0      
       TimerP_rti_freertos.obj                 116     0         0      
       HwiP_armv7r_asm.obj                     112     0         0      
       DebugP_uartLogWriter.obj                90      0         4      
       HwiP_armv7r_vectors_freertos_asm.obj    64      0         0      
       PmuP_armv7r_asm.obj                     56      0         0      
       CpuId_armv7r.obj                        40      0         0      
       boot_armv7r.obj                         36      0         0      
       heap_3.obj                              32      0         0      
       CpuId_armv7r_asm.obj                    12      0         0      
    +--+---------------------------------------+-------+---------+---------+
       Total:                                  32538   3712      13768  
                                                                        
    C:\ti\ccs2031\ccs\tools\compiler\ti-cgt-armllvm_4.0.4.LTS\lib\armv7r-ti-none-eabihf/c/libc.a
       memory.c.obj                            540     0         4      
       autoinit.c.obj                          84      0         0      
       memcpy32.S.obj                          28      0         0      
       memset32.S.obj                          24      0         0      
       _lock.c.obj                             4       0         8      
       exit.c.obj                              8       0         0      
    +--+---------------------------------------+-------+---------+---------+
       Total:                                  688     0         12     
                                                                        
    C:\ti\ccs2031\ccs\tools\compiler\ti-cgt-armllvm_4.0.4.LTS\lib\armv7r-ti-none-eabihf/c/libsysbm.a
       hostexit.c.obj                          8       0         0      
    +--+---------------------------------------+-------+---------+---------+
       Total:                                  8       0         0      
                                                                        
    C:\ti\ccs2031\ccs\tools\compiler\ti-cgt-armllvm_4.0.4.LTS\lib\armv7r-ti-none-eabihf/libclang_rt.builtins.a
       udivmoddi4.S.obj                        280     0         0      
       aeabi_uldivmod.S.obj                    36      0         0      
       aeabi_memset.S.obj                      28      0         0      
       aeabi_div0.c.obj                        4       0         0      
       aeabi_memcpy.S.obj                      4       0         0      
    +--+---------------------------------------+-------+---------+---------+
       Total:                                  352     0         0      
                                                                        
       Heap:                                   0       0         32768  
       Stack:                                  0       0         16384  
    +--+---------------------------------------+-------+---------+---------+
       Grand Total:                            77392   8050      95770  


GLOBAL SYMBOLS: SORTED ALPHABETICALLY BY Name 

address   name                                 
-------   ----                                 
700603f1  AddrTranslateP_getLocalAddr          
700666b1  Board_driversOpen                    
70064541  Board_eepromClose                    
70061661  Board_eepromOpen                     
70066ed1  Board_init                           
70056728  C$$EXIT                              
70065ff1  CSL_armR5GetCpuID                    
700560a4  CSL_armR5ReadMpidrReg                
7006a130  CacheP_configForceWrThru             
7006a1f1  CacheP_disable                       
70069e20  CacheP_disableL1d                    
70069e48  CacheP_disableL1p                    
7006a241  CacheP_enable                        
70069e60  CacheP_enableL1d                     
70069e78  CacheP_enableL1p                     
7006a124  CacheP_getCacheLevelInfo             
7006a0ec  CacheP_getEnabled                    
7006a161  CacheP_init                          
7006a281  CacheP_inv                           
70069e90  CacheP_invL1d                        
70069f04  CacheP_invL1dAll                     
70069ec8  CacheP_invL1p                        
70069f0c  CacheP_invL1pAll                     
7006a150  CacheP_setDLFO                       
70069f14  CacheP_wb                            
70069f8c  CacheP_wbAll                         
70069f50  CacheP_wbInv                         
7006a034  CacheP_wbInvAll                      
7006a04c  CacheP_wbInvAllAsm                   
70066431  ClockP_getTicks                      
70060801  ClockP_getTimeUsec                   
70066cc1  ClockP_getTimerCount                 
7005bf51  ClockP_init                          
700667b1  ClockP_ticksToUsec                   
70066ce1  ClockP_timerClearOverflowInt         
70065961  ClockP_timerTickIsr                  
700664f1  ClockP_usecToTicks                   
70063201  ClockP_usleep                        
70061221  CycleCounterP_enableUserAccess       
70065678  CycleCounterP_getCount32             
70061171  CycleCounterP_init                   
700611e1  CycleCounterP_nsToTicks              
70061191  CycleCounterP_reset                  
70065d21  DebugP_logZoneEnable                 
7005eea1  DebugP_shmLogRead                    
7005c261  DebugP_shmLogReaderGetString         
70063471  DebugP_shmLogReaderInit              
70064251  DebugP_shmLogReaderTaskCreate        
7005efb1  DebugP_shmLogReaderTaskMain          
70064db1  DebugP_uartLogWriterPutChar          
70066a81  DebugP_uartSetDrvIndex               
70064421  Dpl_init                             
70064591  Drivers_i2cClose                     
70061711  Drivers_i2cOpen                      
70066df1  Drivers_open                         
700645e1  Drivers_uartClose                    
70066e91  Drivers_uartInit                     
700617c1  Drivers_uartOpen                     
700626a1  EDMA_allocDmaChannel                 
70062731  EDMA_allocParam                      
700627c1  EDMA_allocTcc                        
70064951  EDMA_ccPaRAMEntry_init               
70066461  EDMA_channelToParamMap               
700646d1  EDMA_clrEvtRegion                    
70063301  EDMA_clrMissEvtRegion                
70060db1  EDMA_configureChannelRegion          
700604c1  EDMA_disableChInShadowRegRegion      
70064721  EDMA_disableDmaEvtRegion             
70064771  EDMA_disableEvtIntrRegion            
70066111  EDMA_disableQdmaEvtRegion            
70061fe1  EDMA_disableTransferRegion           
70060661  EDMA_enableChInShadowRegRegion       
700647c1  EDMA_enableDmaEvtRegion              
70064811  EDMA_enableEvtIntrRegion             
70066141  EDMA_enableQdmaEvtRegion             
70062071  EDMA_enableTransferRegion            
7005fcd1  EDMA_freeChannelRegion               
7005feb1  EDMA_freeDmaChannel                  
7005fdc1  EDMA_freeParam                       
7005ff91  EDMA_freeTcc                         
70063711  EDMA_getBaseAddr                     
700666d1  EDMA_getEventStatus                  
70066571  EDMA_getEventStatusHigh              
700656f1  EDMA_getRegionId                     
700667d1  EDMA_isInterruptEnabled              
70063001  EDMA_linkChannel                     
70060a71  EDMA_mapChToEvtQ                     
700649a1  EDMA_mapQdmaChToPaRAM                
700649f1  EDMA_readEventStatusRegion           
7005dac1  EDMA_registerIntr                    
70064861  EDMA_setEvtRegion                    
700642b1  EDMA_setPaRAM                        
70061ce1  EDMA_unmapChToEvtQ                   
7005c841  EDMA_unregisterIntr                  
70065381  EEPROM_CAT24M_close                  
70062a01  EEPROM_CAT24M_open                   
70060b41  EEPROM_CAT24M_read                   
7005c3e1  EEPROM_CAT24M_write                  
70065ba1  EEPROM_close                         
700637f1  EEPROM_open                          
7006ad50  FreeRTOS_errno                       
70069d70  GET_ADFSR                            
70069d88  GET_AIFSR                            
70069d78  GET_DFAR                             
70069d68  GET_DFSR                             
70069d90  GET_IFAR                             
70069d80  GET_IFSR                             
70069d98  GET_SPSR                             
70056728  HOSTexit                             
70068fe1  HwiP_Params_init                     
70068f61  HwiP_clearInt                        
70069011  HwiP_construct                       
70069ca8  HwiP_data_abort_handler              
700699c1  HwiP_data_abort_handler_c            
70069201  HwiP_destruct                        
70069dac  HwiP_disable                         
70069dbc  HwiP_disableFIQ                      
70068ed1  HwiP_disableInt                      
70069e04  HwiP_disableVIC                      
70069dcc  HwiP_enable                          
70069ddc  HwiP_enableFIQ                       
70068e91  HwiP_enableInt                       
70069df4  HwiP_enableVIC                       
700696f1  HwiP_fiq_handler                     
70069e14  HwiP_getCPSR                         
70069421  HwiP_inISR                           
70069271  HwiP_init                            
70069b64  HwiP_irq_handler                     
70069551  HwiP_irq_handler_c                   
70068fa1  HwiP_post                            
70069cec  HwiP_prefetch_abort_handler          
700698e1  HwiP_prefetch_abort_handler_c        
70069861  HwiP_reserved_handler                
70069dec  HwiP_restore                         
70068f31  HwiP_restoreInt                      
70069541  HwiP_restoreVimIrqPriMask            
700694a1  HwiP_setVimIrqPriMaskAtomic          
70069451  HwiP_setVimIrqPriMaskNonAtomic       
70069af4  HwiP_svc_handler                     
70069d38  HwiP_undefined_handler               
700698a1  HwiP_undefined_handler_c             
70069a81  HwiP_user_data_abort_handler_c       
70069981  HwiP_user_prefetch_abort_handler_c   
700698c1  HwiP_user_undefined_handler_c        
70066751  I2C_Params_init                      
70066231  I2C_Transaction_init                 
7005f501  I2C_close                            
70067be4  I2C_defaultTransaction               
70064131  I2C_getHandle                        
70063861  I2C_init                             
700659e1  I2C_lld_Message_init                 
70065ed1  I2C_lld_Transaction_init             
70058671  I2C_lld_controllerIsr                
70064481  I2C_lld_deInit                       
7006863c  I2C_lld_defaultMessage               
7005c9b1  I2C_lld_init                         
7005de81  I2C_lld_mem_read                     
7005e901  I2C_lld_mem_readIntr                 
7005d701  I2C_lld_mem_write                    
7005e211  I2C_lld_mem_writeIntr                
70058931  I2C_lld_targetIsr                    
7005fa01  I2C_lld_targetTransferIntr           
700651c1  I2C_lld_transferIntr                 
70065201  I2C_lld_transferPoll                 
70058001  I2C_open                             
7005a8f1  I2C_transfer                         
70064b31  IpcNotify_Params_init                
70066261  IpcNotify_allocSwQueue               
70066291  IpcNotify_getConfig                  
70057c21  IpcNotify_init                       
70059e71  IpcNotify_isr                        
70061b01  IpcNotify_registerClient             
7005f2e1  IpcNotify_sendMsg                    
700669c1  IpcNotify_sendSync                   
70062971  IpcNotify_syncAll                    
70065731  IpcNotify_syncCallback               
70066891  IpcNotify_trigInterrupt              
70064a41  IpcNotify_unregisterClient           
70066ee1  IpcNotify_wait                       
700610b1  IpcNotify_waitSync                   
70064a91  Module_clockEnable                   
70063dd1  Module_clockSetFrequency             
7006a321  MpuP_RegionAttrs_init                
7006a3f1  MpuP_disable                         
7006a600  MpuP_disableAsm                      
7006a618  MpuP_disableBRAsm                    
7006a431  MpuP_enable                          
7006a628  MpuP_enableAsm                       
7006a640  MpuP_enableBRAsm                     
7006a2c1  MpuP_getAttrs                        
7006a481  MpuP_init                            
7006a3e1  MpuP_isEnable                        
7006a650  MpuP_isEnableAsm                     
7006a521  MpuP_isUserAuthorizedToAccessMemory  
7006a351  MpuP_setRegion                       
7006a664  MpuP_setRegionAsm                    
70064631  Pinmux_config                        
70066c61  Pinmux_init                          
700656a0  PmuP_clearOverflowStatus             
70065690  PmuP_disableCounters                 
70065688  PmuP_enableCounters                  
70065698  PmuP_getOverflowStatus               
700656a8  PmuP_setUserEnable                   
70065680  PmuP_setup                           
70066e01  PowerClock_init                      
7005e471  SOC_controlModuleLockMMR             
7005cdd1  SOC_controlModuleUnlockMMR           
700665d1  SOC_getSelfCpuClk                    
700665f1  SOC_moduleClockEnable                
70065501  SOC_moduleSetClockFrequency          
70056731  SOC_rcmEnablePeripheralClock         
7005e5a1  SOC_rcmGetPeripheralClockFrequency   
70063941  SOC_rcmGetR5Clock                    
700639b1  SOC_rcmIsR5FInLockStepMode           
700612f1  SOC_rcmSetPeripheralClock            
70058361  SOC_virtToPhy                        
70062a81  SemaphoreP_constructBinary           
70063d11  SemaphoreP_constructMutex            
70066491  SemaphoreP_destruct                  
70062101  SemaphoreP_pend                      
700638d1  SemaphoreP_post                      
70062f01  System_init                          
7006672c  TI_memcpy_small                      
70066928  TI_memset_small                      
700648b1  TaskP_loadUpdateAll                  
70066ec1  TaskP_yield                          
70066d41  TimerP_Params_init                   
700657b1  TimerP_Params_initPriv               
70066d51  TimerP_clearOverflowInt              
70066ba1  TimerP_clearOverflowIntPriv          
70066d61  TimerP_getCount                      
70065a61  TimerP_getCountPriv                  
70066d71  TimerP_getReloadCount                
700668b1  TimerP_getReloadCountPriv            
70066d81  TimerP_isOverflowed                  
700669e1  TimerP_isOverflowedPriv              
70066bc1  TimerP_setup                         
7005acd1  TimerP_setupPriv                     
70066d91  TimerP_start                         
70066a01  TimerP_startPriv                     
70066a21  TimerP_stopPriv                      
70065401  UART_IsTxRxFifoEmpty                 
70062f81  UART_Params_init                     
70065f31  UART_Transaction_init                
70064681  UART_checkCharsAvailInFifo           
7005b071  UART_close                           
70060f31  UART_flushTxFifo                     
70063c51  UART_getChar                         
70064071  UART_getHandle                       
70064bd1  UART_getIntrIdentityStatus           
700613a1  UART_init                            
70065f61  UART_intr2Disable                    
70060231  UART_intrDisable                     
70060151  UART_intrEnable                      
70066631  UART_lld_Transaction_deInit          
70065f91  UART_lld_Transaction_init            
7005bdb1  UART_lld_controllerIsr               
70063e31  UART_lld_deInit                      
70063a91  UART_lld_deInitDma                   
70059c41  UART_lld_dmaDeInit                   
70063ef1  UART_lld_dmaDisableChannel           
70065c61  UART_lld_dmaInit                     
7005e7e1  UART_lld_dmaRead                     
7005b221  UART_lld_dmaWrite                    
70062461  UART_lld_flushTxFifo                 
7005dfb1  UART_lld_init                        
7005cf31  UART_lld_initDma                     
70060311  UART_lld_write                       
70060591  UART_lld_writeDma                    
700609a1  UART_lld_writeIntr                   
70057811  UART_open                            
70065fc1  UART_operatingModeSelect             
7005d981  UART_procLineStatusErr               
70066911  UART_putChar                         
70064ea1  UART_readLineStatus                  
70065341  UART_spaceAvail                      
7005b731  UART_write                           
70062191  UART_writeCancelNoCB                 
70062d01  _DebugP_assert                       
7006a7d1  _DebugP_assertNoLog                  
70061e21  _DebugP_logZone                      
7006c0f8  __ABORT_STACK_END                    
00000100  __ABORT_STACK_SIZE                   
7006bff8  __ABORT_STACK_START                  
70048ec0  __BSS_END                            
70040000  __BSS_START                          
7006aff8  __FIQ_STACK_END                      
00000100  __FIQ_STACK_SIZE                     
7006aef8  __FIQ_STACK_START                    
7006aef8  __IRQ_STACK_END                      
00000100  __IRQ_STACK_SIZE                     
7006adf8  __IRQ_STACK_START                    
70054ec0  __STACK_END                          
00004000  __STACK_SIZE                         
7006bff8  __SVC_STACK_END                      
00001000  __SVC_STACK_SIZE                     
7006aff8  __SVC_STACK_START                    
00008000  __SYSMEM_SIZE                        
00000000  __TI_ATRegion0_region_sz             
00000000  __TI_ATRegion0_src_addr              
00000000  __TI_ATRegion0_trg_addr              
00000000  __TI_ATRegion1_region_sz             
00000000  __TI_ATRegion1_src_addr              
00000000  __TI_ATRegion1_trg_addr              
00000000  __TI_ATRegion2_region_sz             
00000000  __TI_ATRegion2_src_addr              
00000000  __TI_ATRegion2_trg_addr              
UNDEFED   __TI_CINIT_Base                      
UNDEFED   __TI_CINIT_Limit                     
UNDEFED   __TI_Handler_Table_Base              
UNDEFED   __TI_Handler_Table_Limit             
700643c4  __TI_auto_init_nobinit_nopinit       
ffffffff  __TI_pprof_out_hndl                  
ffffffff  __TI_prof_data_size                  
ffffffff  __TI_prof_data_start                 
00000000  __TI_static_base__                   
7006c1f8  __UNDEFINED_STACK_END                
00000100  __UNDEFINED_STACK_SIZE               
7006c0f8  __UNDEFINED_STACK_START              
70056d68  __aeabi_ldiv0                        
700558f4  __aeabi_memclr                       
700558f4  __aeabi_memclr4                      
700558f4  __aeabi_memclr8                      
70056d6c  __aeabi_memcpy                       
70056d6c  __aeabi_memcpy4                      
70056d6c  __aeabi_memcpy8                      
70066da0  __aeabi_memset                       
70066da0  __aeabi_memset4                      
70066da0  __aeabi_memset8                      
70066344  __aeabi_uldivmod                     
ffffffff  __binit__                            
7006a831  __mpu_init                           
70050ec0  __stack                              
7005ea1c  __udivmoddi4                         
7006a6a4  _c_int00                             
7006a680  _c_int00_sbl                         
7006ad54  _lock                                
70057354  _nop                                 
70048ec0  _sys_memory                          
UNDEFED   _system_post_cinit                   
7006a801  _system_pre_init                     
7006ad58  _unlock                              
00000000  _vectors                             
7006a840  abort                                
ffffffff  binit                                
7005b3cc  free                                 
700673a8  gADPLLJConfigTbl                     
7006acec  gAddrTranslateConfig                 
700674fa  gCR5ClkSrcInfoMap                    
70066f10  gCacheConfig                         
70068e74  gCacheL1dCacheLineSize               
70068e78  gCacheL1pCacheLineSize               
7006ac60  gClockConfig                         
70048de8  gClockCtrl                           
7006ad60  gDebugLogZone                        
7006ad64  gDebugP_uartDrvIndex                 
701d4000  gDebugShmLog                         
70048c28  gDebugShmLogReaderCtrl               
7006a848  gEdmaConfig                          
7006ad68  gEdmaConfigNum                       
7006acf8  gEepromAttrs_CAT24M                  
7006ad04  gEepromConfig                        
7006ad6c  gEepromConfigNum                     
7006acbc  gEepromFxns_CAT24M                   
70048ea4  gEepromHandle                        
700482a0  gEepromObject_CAT24M                 
7006ad1c  gEepromParams                        
701d0000  gGatewaySharedMem                    
7006ad70  gHwiConfig                           
70046000  gHwiCtrl                             
7006ad24  gI2cConfig                           
7006ad74  gI2cConfigNum                        
70048ea8  gI2cHandle                           
7006ad10  gI2cParams                           
7006accc  gIpcNotifyCoreIntrBitPos             
7004860c  gIpcNotifyCtrl                       
7006ad78  gIpcNotifyInterruptConfigNum_r5fss0_0
7006ac90  gIpcNotifyInterruptConfig_r5fss0_0   
7006aa00  gIpcNotifyMailboxConfig              
7006ad7c  gIpcTask                             
7006ad80  gLogReaderTask                       
7006ad84  gMainTask                            
70066f18  gMpuConfig                           
70066f24  gMpuRegionConfig                     
7006872c  gPeripheralClkSrcInfoMap             
70048d64  gRovDummyQueue                       
7006acdc  gSocModules                          
7006ac10  gSocModulesClockFrequency            
700486c8  gTaskP_ctrl                          
7006ad34  gUartConfig                          
7006ad88  gUartConfigNum                       
7006ad8c  gUartDmaChConfig                     
7006a848  gUartDmaHandle                       
70048eac  gUartHandle                          
7006abb8  gUartParams                          
7006ad90  gUdpRxTask                           
7006ad94  gUdpTxTask                           
70068e3c  gXTALInfo                            
700658a1  gateway_core0_finalize               
70065de1  gateway_core0_init                   
70060c11  gateway_core0_ipc_callback           
70063d71  gateway_notify_test_data_ready       
70061a61  gateway_read_motor_states            
70062c81  gateway_read_test_data               
700623d1  gateway_write_test_data              
7006adf1  isMapAvailable                       
700634e1  log_reader_task_create               
70061ec1  main                                 
70066c01  putchar_                             
700663a1  pvTaskIncrementMutexHeldCount        
7006ada0  pxCurrentTCB                         
7005e341  pxPortInitialiseStack                
70066c81  uiPortGetRunTimeCounterValue         
7006ada4  ulPortInterruptNesting               
7006ada8  ulPortSchedularRunning               
7006adac  ulPortTaskHasFPUContext              
7006adb0  ulPortYieldRequired                  
7005e0e1  ulTaskGenericNotifyTake              
70065581  ulTaskGetIdleRunTimeCounter          
70065e41  ulTaskGetRunTimeCounter              
70064d61  uxListRemove                         
70066e11  uxTaskGetNumberOfTasks               
70065e71  vApplicationGetIdleTaskMemory        
70065ea1  vApplicationGetTimerTaskMemory       
70066e81  vApplicationIdleHook                 
70063b01  vApplicationLoadHook                 
70065b21  vApplicationStackOverflowHook        
70065cf1  vListInitialise                      
70066dd1  vListInitialiseItem                  
700636a1  vListInsert                          
700655c1  vListInsertEnd                       
70066ef1  vPortConfigTimerForRunTimeStats      
70066551  vPortFree                            
70069abc  vPortRestoreTaskContext              
700654c1  vPortTimerTickHandler                
70066f01  vPortValidateInterruptPriority       
70066711  vPortYeildFromISR                    
70060ce1  vQueueAddToRegistry                  
70064901  vQueueDelete                         
70062d81  vQueueUnregisterQueue                
70063b71  vQueueWaitForMessageRestricted       
70063551  vTaskDelay                           
7005dd41  vTaskDelete                          
700635c1  vTaskEnterCritical                   
700615b1  vTaskExitCritical                    
7005a0a1  vTaskGenericNotifyGiveFromISR        
700663d1  vTaskInternalSetTimeOutState         
70066de1  vTaskMissedYield                     
70064ae1  vTaskPlaceOnEventList                
70062221  vTaskPlaceOnEventListRestricted      
7005bc11  vTaskPriorityDisinheritAfterTimeout  
70061c41  vTaskStartScheduler                  
70066dc1  vTaskSuspendAll                      
7005b8d1  vTaskSwitchContext                   
70048e78  virtToPhymap                         
700660e1  vprintf_                             
70066401  xPortStartScheduler                  
70065b61  xQueueCreateMutexStatic              
7005f911  xQueueGenericCreateStatic            
7005f1d1  xQueueGenericReset                   
7005a2c1  xQueueGenericSend                    
7005c561  xQueueGiveFromISR                    
70063181  xQueueGiveMutexRecursive             
7005aaf1  xQueueReceive                        
7005d1e1  xQueueReceiveFromISR                 
7004850c  xQueueRegistry                       
7005a4e1  xQueueSemaphoreTake                  
70063101  xQueueTakeMutexRecursive             
70060071  xTaskCheckForTimeOut                 
70063e91  xTaskCreateStatic                    
7005e6c1  xTaskDelayUntil                      
70066c21  xTaskGetCurrentTaskHandle            
700656b1  xTaskGetSchedulerState               
70066691  xTaskGetTickCount                    
700661d1  xTaskGetTickCountFromISR             
70058e51  xTaskIncrementTick                   
7005d091  xTaskPriorityDisinherit              
7005cc71  xTaskPriorityInherit                 
7005aeb1  xTaskRemoveFromEventList             
700590c1  xTaskResumeAll                       
700619c1  xTimerCreateTimerTask                


GLOBAL SYMBOLS: SORTED BY Symbol Address 

address   name                                 
-------   ----                                 
00000000  __TI_ATRegion0_region_sz             
00000000  __TI_ATRegion0_src_addr              
00000000  __TI_ATRegion0_trg_addr              
00000000  __TI_ATRegion1_region_sz             
00000000  __TI_ATRegion1_src_addr              
00000000  __TI_ATRegion1_trg_addr              
00000000  __TI_ATRegion2_region_sz             
00000000  __TI_ATRegion2_src_addr              
00000000  __TI_ATRegion2_trg_addr              
00000000  __TI_static_base__                   
00000000  _vectors                             
00000100  __ABORT_STACK_SIZE                   
00000100  __FIQ_STACK_SIZE                     
00000100  __IRQ_STACK_SIZE                     
00000100  __UNDEFINED_STACK_SIZE               
00001000  __SVC_STACK_SIZE                     
00004000  __STACK_SIZE                         
00008000  __SYSMEM_SIZE                        
70040000  __BSS_START                          
70046000  gHwiCtrl                             
700482a0  gEepromObject_CAT24M                 
7004850c  xQueueRegistry                       
7004860c  gIpcNotifyCtrl                       
700486c8  gTaskP_ctrl                          
70048c28  gDebugShmLogReaderCtrl               
70048d64  gRovDummyQueue                       
70048de8  gClockCtrl                           
70048e78  virtToPhymap                         
70048ea4  gEepromHandle                        
70048ea8  gI2cHandle                           
70048eac  gUartHandle                          
70048ec0  __BSS_END                            
70048ec0  _sys_memory                          
70050ec0  __stack                              
70054ec0  __STACK_END                          
700558f4  __aeabi_memclr                       
700558f4  __aeabi_memclr4                      
700558f4  __aeabi_memclr8                      
700560a4  CSL_armR5ReadMpidrReg                
70056728  C$$EXIT                              
70056728  HOSTexit                             
70056731  SOC_rcmEnablePeripheralClock         
70056d68  __aeabi_ldiv0                        
70056d6c  __aeabi_memcpy                       
70056d6c  __aeabi_memcpy4                      
70056d6c  __aeabi_memcpy8                      
70057354  _nop                                 
70057811  UART_open                            
70057c21  IpcNotify_init                       
70058001  I2C_open                             
70058361  SOC_virtToPhy                        
70058671  I2C_lld_controllerIsr                
70058931  I2C_lld_targetIsr                    
70058e51  xTaskIncrementTick                   
700590c1  xTaskResumeAll                       
70059c41  UART_lld_dmaDeInit                   
70059e71  IpcNotify_isr                        
7005a0a1  vTaskGenericNotifyGiveFromISR        
7005a2c1  xQueueGenericSend                    
7005a4e1  xQueueSemaphoreTake                  
7005a8f1  I2C_transfer                         
7005aaf1  xQueueReceive                        
7005acd1  TimerP_setupPriv                     
7005aeb1  xTaskRemoveFromEventList             
7005b071  UART_close                           
7005b221  UART_lld_dmaWrite                    
7005b3cc  free                                 
7005b731  UART_write                           
7005b8d1  vTaskSwitchContext                   
7005bc11  vTaskPriorityDisinheritAfterTimeout  
7005bdb1  UART_lld_controllerIsr               
7005bf51  ClockP_init                          
7005c261  DebugP_shmLogReaderGetString         
7005c3e1  EEPROM_CAT24M_write                  
7005c561  xQueueGiveFromISR                    
7005c841  EDMA_unregisterIntr                  
7005c9b1  I2C_lld_init                         
7005cc71  xTaskPriorityInherit                 
7005cdd1  SOC_controlModuleUnlockMMR           
7005cf31  UART_lld_initDma                     
7005d091  xTaskPriorityDisinherit              
7005d1e1  xQueueReceiveFromISR                 
7005d701  I2C_lld_mem_write                    
7005d981  UART_procLineStatusErr               
7005dac1  EDMA_registerIntr                    
7005dd41  vTaskDelete                          
7005de81  I2C_lld_mem_read                     
7005dfb1  UART_lld_init                        
7005e0e1  ulTaskGenericNotifyTake              
7005e211  I2C_lld_mem_writeIntr                
7005e341  pxPortInitialiseStack                
7005e471  SOC_controlModuleLockMMR             
7005e5a1  SOC_rcmGetPeripheralClockFrequency   
7005e6c1  xTaskDelayUntil                      
7005e7e1  UART_lld_dmaRead                     
7005e901  I2C_lld_mem_readIntr                 
7005ea1c  __udivmoddi4                         
7005eea1  DebugP_shmLogRead                    
7005efb1  DebugP_shmLogReaderTaskMain          
7005f1d1  xQueueGenericReset                   
7005f2e1  IpcNotify_sendMsg                    
7005f501  I2C_close                            
7005f911  xQueueGenericCreateStatic            
7005fa01  I2C_lld_targetTransferIntr           
7005fcd1  EDMA_freeChannelRegion               
7005fdc1  EDMA_freeParam                       
7005feb1  EDMA_freeDmaChannel                  
7005ff91  EDMA_freeTcc                         
70060071  xTaskCheckForTimeOut                 
70060151  UART_intrEnable                      
70060231  UART_intrDisable                     
70060311  UART_lld_write                       
700603f1  AddrTranslateP_getLocalAddr          
700604c1  EDMA_disableChInShadowRegRegion      
70060591  UART_lld_writeDma                    
70060661  EDMA_enableChInShadowRegRegion       
70060801  ClockP_getTimeUsec                   
700609a1  UART_lld_writeIntr                   
70060a71  EDMA_mapChToEvtQ                     
70060b41  EEPROM_CAT24M_read                   
70060c11  gateway_core0_ipc_callback           
70060ce1  vQueueAddToRegistry                  
70060db1  EDMA_configureChannelRegion          
70060f31  UART_flushTxFifo                     
700610b1  IpcNotify_waitSync                   
70061171  CycleCounterP_init                   
70061191  CycleCounterP_reset                  
700611e1  CycleCounterP_nsToTicks              
70061221  CycleCounterP_enableUserAccess       
700612f1  SOC_rcmSetPeripheralClock            
700613a1  UART_init                            
700615b1  vTaskExitCritical                    
70061661  Board_eepromOpen                     
70061711  Drivers_i2cOpen                      
700617c1  Drivers_uartOpen                     
700619c1  xTimerCreateTimerTask                
70061a61  gateway_read_motor_states            
70061b01  IpcNotify_registerClient             
70061c41  vTaskStartScheduler                  
70061ce1  EDMA_unmapChToEvtQ                   
70061e21  _DebugP_logZone                      
70061ec1  main                                 
70061fe1  EDMA_disableTransferRegion           
70062071  EDMA_enableTransferRegion            
70062101  SemaphoreP_pend                      
70062191  UART_writeCancelNoCB                 
70062221  vTaskPlaceOnEventListRestricted      
700623d1  gateway_write_test_data              
70062461  UART_lld_flushTxFifo                 
700626a1  EDMA_allocDmaChannel                 
70062731  EDMA_allocParam                      
700627c1  EDMA_allocTcc                        
70062971  IpcNotify_syncAll                    
70062a01  EEPROM_CAT24M_open                   
70062a81  SemaphoreP_constructBinary           
70062c81  gateway_read_test_data               
70062d01  _DebugP_assert                       
70062d81  vQueueUnregisterQueue                
70062f01  System_init                          
70062f81  UART_Params_init                     
70063001  EDMA_linkChannel                     
70063101  xQueueTakeMutexRecursive             
70063181  xQueueGiveMutexRecursive             
70063201  ClockP_usleep                        
70063301  EDMA_clrMissEvtRegion                
70063471  DebugP_shmLogReaderInit              
700634e1  log_reader_task_create               
70063551  vTaskDelay                           
700635c1  vTaskEnterCritical                   
700636a1  vListInsert                          
70063711  EDMA_getBaseAddr                     
700637f1  EEPROM_open                          
70063861  I2C_init                             
700638d1  SemaphoreP_post                      
70063941  SOC_rcmGetR5Clock                    
700639b1  SOC_rcmIsR5FInLockStepMode           
70063a91  UART_lld_deInitDma                   
70063b01  vApplicationLoadHook                 
70063b71  vQueueWaitForMessageRestricted       
70063c51  UART_getChar                         
70063d11  SemaphoreP_constructMutex            
70063d71  gateway_notify_test_data_ready       
70063dd1  Module_clockSetFrequency             
70063e31  UART_lld_deInit                      
70063e91  xTaskCreateStatic                    
70063ef1  UART_lld_dmaDisableChannel           
70064071  UART_getHandle                       
70064131  I2C_getHandle                        
70064251  DebugP_shmLogReaderTaskCreate        
700642b1  EDMA_setPaRAM                        
700643c4  __TI_auto_init_nobinit_nopinit       
70064421  Dpl_init                             
70064481  I2C_lld_deInit                       
70064541  Board_eepromClose                    
70064591  Drivers_i2cClose                     
700645e1  Drivers_uartClose                    
70064631  Pinmux_config                        
70064681  UART_checkCharsAvailInFifo           
700646d1  EDMA_clrEvtRegion                    
70064721  EDMA_disableDmaEvtRegion             
70064771  EDMA_disableEvtIntrRegion            
700647c1  EDMA_enableDmaEvtRegion              
70064811  EDMA_enableEvtIntrRegion             
70064861  EDMA_setEvtRegion                    
700648b1  TaskP_loadUpdateAll                  
70064901  vQueueDelete                         
70064951  EDMA_ccPaRAMEntry_init               
700649a1  EDMA_mapQdmaChToPaRAM                
700649f1  EDMA_readEventStatusRegion           
70064a41  IpcNotify_unregisterClient           
70064a91  Module_clockEnable                   
70064ae1  vTaskPlaceOnEventList                
70064b31  IpcNotify_Params_init                
70064bd1  UART_getIntrIdentityStatus           
70064d61  uxListRemove                         
70064db1  DebugP_uartLogWriterPutChar          
70064ea1  UART_readLineStatus                  
700651c1  I2C_lld_transferIntr                 
70065201  I2C_lld_transferPoll                 
70065341  UART_spaceAvail                      
70065381  EEPROM_CAT24M_close                  
70065401  UART_IsTxRxFifoEmpty                 
700654c1  vPortTimerTickHandler                
70065501  SOC_moduleSetClockFrequency          
70065581  ulTaskGetIdleRunTimeCounter          
700655c1  vListInsertEnd                       
70065678  CycleCounterP_getCount32             
70065680  PmuP_setup                           
70065688  PmuP_enableCounters                  
70065690  PmuP_disableCounters                 
70065698  PmuP_getOverflowStatus               
700656a0  PmuP_clearOverflowStatus             
700656a8  PmuP_setUserEnable                   
700656b1  xTaskGetSchedulerState               
700656f1  EDMA_getRegionId                     
70065731  IpcNotify_syncCallback               
700657b1  TimerP_Params_initPriv               
700658a1  gateway_core0_finalize               
70065961  ClockP_timerTickIsr                  
700659e1  I2C_lld_Message_init                 
70065a61  TimerP_getCountPriv                  
70065b21  vApplicationStackOverflowHook        
70065b61  xQueueCreateMutexStatic              
70065ba1  EEPROM_close                         
70065c61  UART_lld_dmaInit                     
70065cf1  vListInitialise                      
70065d21  DebugP_logZoneEnable                 
70065de1  gateway_core0_init                   
70065e41  ulTaskGetRunTimeCounter              
70065e71  vApplicationGetIdleTaskMemory        
70065ea1  vApplicationGetTimerTaskMemory       
70065ed1  I2C_lld_Transaction_init             
70065f31  UART_Transaction_init                
70065f61  UART_intr2Disable                    
70065f91  UART_lld_Transaction_init            
70065fc1  UART_operatingModeSelect             
70065ff1  CSL_armR5GetCpuID                    
700660e1  vprintf_                             
70066111  EDMA_disableQdmaEvtRegion            
70066141  EDMA_enableQdmaEvtRegion             
700661d1  xTaskGetTickCountFromISR             
70066231  I2C_Transaction_init                 
70066261  IpcNotify_allocSwQueue               
70066291  IpcNotify_getConfig                  
70066344  __aeabi_uldivmod                     
700663a1  pvTaskIncrementMutexHeldCount        
700663d1  vTaskInternalSetTimeOutState         
70066401  xPortStartScheduler                  
70066431  ClockP_getTicks                      
70066461  EDMA_channelToParamMap               
70066491  SemaphoreP_destruct                  
700664f1  ClockP_usecToTicks                   
70066551  vPortFree                            
70066571  EDMA_getEventStatusHigh              
700665d1  SOC_getSelfCpuClk                    
700665f1  SOC_moduleClockEnable                
70066631  UART_lld_Transaction_deInit          
70066691  xTaskGetTickCount                    
700666b1  Board_driversOpen                    
700666d1  EDMA_getEventStatus                  
70066711  vPortYeildFromISR                    
7006672c  TI_memcpy_small                      
70066751  I2C_Params_init                      
700667b1  ClockP_ticksToUsec                   
700667d1  EDMA_isInterruptEnabled              
70066891  IpcNotify_trigInterrupt              
700668b1  TimerP_getReloadCountPriv            
70066911  UART_putChar                         
70066928  TI_memset_small                      
700669c1  IpcNotify_sendSync                   
700669e1  TimerP_isOverflowedPriv              
70066a01  TimerP_startPriv                     
70066a21  TimerP_stopPriv                      
70066a81  DebugP_uartSetDrvIndex               
70066ba1  TimerP_clearOverflowIntPriv          
70066bc1  TimerP_setup                         
70066c01  putchar_                             
70066c21  xTaskGetCurrentTaskHandle            
70066c61  Pinmux_init                          
70066c81  uiPortGetRunTimeCounterValue         
70066cc1  ClockP_getTimerCount                 
70066ce1  ClockP_timerClearOverflowInt         
70066d41  TimerP_Params_init                   
70066d51  TimerP_clearOverflowInt              
70066d61  TimerP_getCount                      
70066d71  TimerP_getReloadCount                
70066d81  TimerP_isOverflowed                  
70066d91  TimerP_start                         
70066da0  __aeabi_memset                       
70066da0  __aeabi_memset4                      
70066da0  __aeabi_memset8                      
70066dc1  vTaskSuspendAll                      
70066dd1  vListInitialiseItem                  
70066de1  vTaskMissedYield                     
70066df1  Drivers_open                         
70066e01  PowerClock_init                      
70066e11  uxTaskGetNumberOfTasks               
70066e81  vApplicationIdleHook                 
70066e91  Drivers_uartInit                     
70066ec1  TaskP_yield                          
70066ed1  Board_init                           
70066ee1  IpcNotify_wait                       
70066ef1  vPortConfigTimerForRunTimeStats      
70066f01  vPortValidateInterruptPriority       
70066f10  gCacheConfig                         
70066f18  gMpuConfig                           
70066f24  gMpuRegionConfig                     
700673a8  gADPLLJConfigTbl                     
700674fa  gCR5ClkSrcInfoMap                    
70067be4  I2C_defaultTransaction               
7006863c  I2C_lld_defaultMessage               
7006872c  gPeripheralClkSrcInfoMap             
70068e3c  gXTALInfo                            
70068e74  gCacheL1dCacheLineSize               
70068e78  gCacheL1pCacheLineSize               
70068e91  HwiP_enableInt                       
70068ed1  HwiP_disableInt                      
70068f31  HwiP_restoreInt                      
70068f61  HwiP_clearInt                        
70068fa1  HwiP_post                            
70068fe1  HwiP_Params_init                     
70069011  HwiP_construct                       
70069201  HwiP_destruct                        
70069271  HwiP_init                            
70069421  HwiP_inISR                           
70069451  HwiP_setVimIrqPriMaskNonAtomic       
700694a1  HwiP_setVimIrqPriMaskAtomic          
70069541  HwiP_restoreVimIrqPriMask            
70069551  HwiP_irq_handler_c                   
700696f1  HwiP_fiq_handler                     
70069861  HwiP_reserved_handler                
700698a1  HwiP_undefined_handler_c             
700698c1  HwiP_user_undefined_handler_c        
700698e1  HwiP_prefetch_abort_handler_c        
70069981  HwiP_user_prefetch_abort_handler_c   
700699c1  HwiP_data_abort_handler_c            
70069a81  HwiP_user_data_abort_handler_c       
70069abc  vPortRestoreTaskContext              
70069af4  HwiP_svc_handler                     
70069b64  HwiP_irq_handler                     
70069ca8  HwiP_data_abort_handler              
70069cec  HwiP_prefetch_abort_handler          
70069d38  HwiP_undefined_handler               
70069d68  GET_DFSR                             
70069d70  GET_ADFSR                            
70069d78  GET_DFAR                             
70069d80  GET_IFSR                             
70069d88  GET_AIFSR                            
70069d90  GET_IFAR                             
70069d98  GET_SPSR                             
70069dac  HwiP_disable                         
70069dbc  HwiP_disableFIQ                      
70069dcc  HwiP_enable                          
70069ddc  HwiP_enableFIQ                       
70069dec  HwiP_restore                         
70069df4  HwiP_enableVIC                       
70069e04  HwiP_disableVIC                      
70069e14  HwiP_getCPSR                         
70069e20  CacheP_disableL1d                    
70069e48  CacheP_disableL1p                    
70069e60  CacheP_enableL1d                     
70069e78  CacheP_enableL1p                     
70069e90  CacheP_invL1d                        
70069ec8  CacheP_invL1p                        
70069f04  CacheP_invL1dAll                     
70069f0c  CacheP_invL1pAll                     
70069f14  CacheP_wb                            
70069f50  CacheP_wbInv                         
70069f8c  CacheP_wbAll                         
7006a034  CacheP_wbInvAll                      
7006a04c  CacheP_wbInvAllAsm                   
7006a0ec  CacheP_getEnabled                    
7006a124  CacheP_getCacheLevelInfo             
7006a130  CacheP_configForceWrThru             
7006a150  CacheP_setDLFO                       
7006a161  CacheP_init                          
7006a1f1  CacheP_disable                       
7006a241  CacheP_enable                        
7006a281  CacheP_inv                           
7006a2c1  MpuP_getAttrs                        
7006a321  MpuP_RegionAttrs_init                
7006a351  MpuP_setRegion                       
7006a3e1  MpuP_isEnable                        
7006a3f1  MpuP_disable                         
7006a431  MpuP_enable                          
7006a481  MpuP_init                            
7006a521  MpuP_isUserAuthorizedToAccessMemory  
7006a600  MpuP_disableAsm                      
7006a618  MpuP_disableBRAsm                    
7006a628  MpuP_enableAsm                       
7006a640  MpuP_enableBRAsm                     
7006a650  MpuP_isEnableAsm                     
7006a664  MpuP_setRegionAsm                    
7006a680  _c_int00_sbl                         
7006a6a4  _c_int00                             
7006a7d1  _DebugP_assertNoLog                  
7006a801  _system_pre_init                     
7006a831  __mpu_init                           
7006a840  abort                                
7006a848  gEdmaConfig                          
7006a848  gUartDmaHandle                       
7006aa00  gIpcNotifyMailboxConfig              
7006abb8  gUartParams                          
7006ac10  gSocModulesClockFrequency            
7006ac60  gClockConfig                         
7006ac90  gIpcNotifyInterruptConfig_r5fss0_0   
7006acbc  gEepromFxns_CAT24M                   
7006accc  gIpcNotifyCoreIntrBitPos             
7006acdc  gSocModules                          
7006acec  gAddrTranslateConfig                 
7006acf8  gEepromAttrs_CAT24M                  
7006ad04  gEepromConfig                        
7006ad10  gI2cParams                           
7006ad1c  gEepromParams                        
7006ad24  gI2cConfig                           
7006ad34  gUartConfig                          
7006ad50  FreeRTOS_errno                       
7006ad54  _lock                                
7006ad58  _unlock                              
7006ad60  gDebugLogZone                        
7006ad64  gDebugP_uartDrvIndex                 
7006ad68  gEdmaConfigNum                       
7006ad6c  gEepromConfigNum                     
7006ad70  gHwiConfig                           
7006ad74  gI2cConfigNum                        
7006ad78  gIpcNotifyInterruptConfigNum_r5fss0_0
7006ad7c  gIpcTask                             
7006ad80  gLogReaderTask                       
7006ad84  gMainTask                            
7006ad88  gUartConfigNum                       
7006ad8c  gUartDmaChConfig                     
7006ad90  gUdpRxTask                           
7006ad94  gUdpTxTask                           
7006ada0  pxCurrentTCB                         
7006ada4  ulPortInterruptNesting               
7006ada8  ulPortSchedularRunning               
7006adac  ulPortTaskHasFPUContext              
7006adb0  ulPortYieldRequired                  
7006adf1  isMapAvailable                       
7006adf8  __IRQ_STACK_START                    
7006aef8  __FIQ_STACK_START                    
7006aef8  __IRQ_STACK_END                      
7006aff8  __FIQ_STACK_END                      
7006aff8  __SVC_STACK_START                    
7006bff8  __ABORT_STACK_START                  
7006bff8  __SVC_STACK_END                      
7006c0f8  __ABORT_STACK_END                    
7006c0f8  __UNDEFINED_STACK_START              
7006c1f8  __UNDEFINED_STACK_END                
701d0000  gGatewaySharedMem                    
701d4000  gDebugShmLog                         
ffffffff  __TI_pprof_out_hndl                  
ffffffff  __TI_prof_data_size                  
ffffffff  __TI_prof_data_start                 
ffffffff  __binit__                            
ffffffff  binit                                
UNDEFED   __TI_CINIT_Base                      
UNDEFED   __TI_CINIT_Limit                     
UNDEFED   __TI_Handler_Table_Base              
UNDEFED   __TI_Handler_Table_Limit             
UNDEFED   _system_post_cinit                   

[481 symbols]
